---
triple:          'arm64-apple-darwin'
binary-path:     '/Users/tirtharaj/Desktop/Git/Library-Mangement-System/output/library'
relocations:
  - { offsetInCU: 0x52, offset: 0x52, size: 0x8, addend: 0x0, symName: __ZL13booksFilePath, symObjAddr: 0x380D0, symBinAddr: 0x100010000, symSize: 0x0 }
  - { offsetInCU: 0x4842, offset: 0x4842, size: 0x8, addend: 0x0, symName: __ZNSt3__124__put_character_sequenceB7v160006IcNS_11char_traitsIcEEEERNS_13basic_ostreamIT_T0_EES7_PKS4_m, symObjAddr: 0x3034, symBinAddr: 0x1000071F4, symSize: 0x1F4 }
  - { offsetInCU: 0x6C3E, offset: 0x6C3E, size: 0x8, addend: 0x0, symName: __ZNSt3__1lsB7v160006INS_11char_traitsIcEEEERNS_13basic_ostreamIcT_EES6_PKc, symObjAddr: 0x348, symBinAddr: 0x100004508, symSize: 0x48 }
  - { offsetInCU: 0x6C84, offset: 0x6C84, size: 0x8, addend: 0x0, symName: __ZNSt3__1rsB7v160006IcNS_11char_traitsIcEENS_9allocatorIcEEEERNS_13basic_istreamIT_T0_EES9_RNS_12basic_stringIS6_S7_T1_EE, symObjAddr: 0x5DC, symBinAddr: 0x10000479C, symSize: 0x314 }
  - { offsetInCU: 0x6D51, offset: 0x6D51, size: 0x8, addend: 0x0, symName: __ZNSt3__17getlineB7v160006IcNS_11char_traitsIcEENS_9allocatorIcEEEERNS_13basic_istreamIT_T0_EES9_RNS_12basic_stringIS6_S7_T1_EE, symObjAddr: 0x1720, symBinAddr: 0x1000058E0, symSize: 0x5C }
  - { offsetInCU: 0x75BC, offset: 0x75BC, size: 0x8, addend: 0x0, symName: __ZNSt3__1lsB7v160006IcNS_11char_traitsIcEEEERNS_13basic_ostreamIT_T0_EES7_RKNS_8__iom_t6E, symObjAddr: 0x19D4, symBinAddr: 0x100005B94, symSize: 0x40 }
  - { offsetInCU: 0x760B, offset: 0x760B, size: 0x8, addend: 0x0, symName: __ZNSt3__1lsB7v160006IcNS_11char_traitsIcEENS_9allocatorIcEEEERNS_13basic_ostreamIT_T0_EES9_RKNS_12basic_stringIS6_S7_T1_EE, symObjAddr: 0x1A14, symBinAddr: 0x100005BD4, symSize: 0x4C }
  - { offsetInCU: 0x7663, offset: 0x7663, size: 0x8, addend: 0x0, symName: __ZNSt3__14leftB7v160006ERNS_8ios_baseE, symObjAddr: 0x1AA0, symBinAddr: 0x100005C60, symSize: 0x30 }
  - { offsetInCU: 0x7691, offset: 0x7691, size: 0x8, addend: 0x0, symName: __ZNSt3__14setwB7v160006Ei, symObjAddr: 0x1AD0, symBinAddr: 0x100005C90, symSize: 0x2C }
  - { offsetInCU: 0x76BF, offset: 0x76BF, size: 0x8, addend: 0x0, symName: __ZNSt3__14endlB7v160006IcNS_11char_traitsIcEEEERNS_13basic_ostreamIT_T0_EES7_, symObjAddr: 0x1B28, symBinAddr: 0x100005CE8, symSize: 0x58 }
  - { offsetInCU: 0x770A, offset: 0x770A, size: 0x8, addend: 0x0, symName: __ZNSt3__1neB7v160006IP4BookEEbRKNS_11__wrap_iterIT_EES7_, symObjAddr: 0x1CD4, symBinAddr: 0x100005E94, symSize: 0x34 }
  - { offsetInCU: 0x7769, offset: 0x7769, size: 0x8, addend: 0x0, symName: __ZNSt3__1neB7v160006IPK4BookEEbRKNS_11__wrap_iterIT_EES8_, symObjAddr: 0x1EB8, symBinAddr: 0x100006078, symSize: 0x34 }
  - { offsetInCU: 0x7EA1, offset: 0x7EA1, size: 0x8, addend: 0x0, symName: __ZNSt3__1eqB7v160006INS_9allocatorIcEEEEbRKNS_12basic_stringIcNS_11char_traitsIcEET_EES9_, symObjAddr: 0x21F4, symBinAddr: 0x1000063B4, symSize: 0x148 }
  - { offsetInCU: 0x7F1F, offset: 0x7F1F, size: 0x8, addend: 0x0, symName: __ZNSt3__119__debug_db_insert_cB7v160006INS_12basic_stringIcNS_11char_traitsIcEENS_9allocatorIcEEEEEEvPT_, symObjAddr: 0x2824, symBinAddr: 0x1000069E4, symSize: 0x10 }
  - { offsetInCU: 0x7F50, offset: 0x7F50, size: 0x8, addend: 0x0, symName: __ZNSt3__118__constexpr_strlenB7v160006EPKc, symObjAddr: 0x28F0, symBinAddr: 0x100006AB0, symSize: 0x24 }
  - { offsetInCU: 0x7F7C, offset: 0x7F7C, size: 0x8, addend: 0x0, symName: __ZNSt3__119__debug_db_insert_cB7v160006INS_6vectorI4BookNS_9allocatorIS2_EEEEEEvPT_, symObjAddr: 0x299C, symBinAddr: 0x100006B5C, symSize: 0x10 }
  - { offsetInCU: 0x7FAD, offset: 0x7FAD, size: 0x8, addend: 0x0, symName: __ZNSt3__118__debug_db_erase_cB7v160006INS_6vectorI4BookNS_9allocatorIS2_EEEEEEvPT_, symObjAddr: 0x2C58, symBinAddr: 0x100006E18, symSize: 0x10 }
  - { offsetInCU: 0x7FDE, offset: 0x7FDE, size: 0x8, addend: 0x0, symName: __ZNSt3__112__to_addressB7v160006I4BookEEPT_S3_, symObjAddr: 0x2D9C, symBinAddr: 0x100006F5C, symSize: 0x14 }
  - { offsetInCU: 0x8013, offset: 0x8013, size: 0x8, addend: 0x0, symName: __ZNSt3__130__libcpp_is_constant_evaluatedB7v160006Ev, symObjAddr: 0x2F14, symBinAddr: 0x1000070D4, symSize: 0xC }
  - { offsetInCU: 0x8030, offset: 0x8030, size: 0x8, addend: 0x0, symName: __ZNSt3__119__libcpp_deallocateB7v160006EPvmm, symObjAddr: 0x2F20, symBinAddr: 0x1000070E0, symSize: 0x30 }
  - { offsetInCU: 0x8078, offset: 0x8078, size: 0x8, addend: 0x0, symName: __ZNSt3__127__do_deallocate_handle_sizeB7v160006IJEEEvPvmDpT_, symObjAddr: 0x2F50, symBinAddr: 0x100007110, symSize: 0x28 }
  - { offsetInCU: 0x80B6, offset: 0x80B6, size: 0x8, addend: 0x0, symName: __ZNSt3__124__libcpp_operator_deleteB7v160006IJPvEEEvDpT_, symObjAddr: 0x2F78, symBinAddr: 0x100007138, symSize: 0x24 }
  - { offsetInCU: 0x80EB, offset: 0x80EB, size: 0x8, addend: 0x0, symName: __ZNSt3__116__pad_and_outputB7v160006IcNS_11char_traitsIcEEEENS_19ostreambuf_iteratorIT_T0_EES6_PKS4_S8_S8_RNS_8ios_baseES4_, symObjAddr: 0x3244, symBinAddr: 0x100007404, symSize: 0x248 }
  - { offsetInCU: 0x81BA, offset: 0x81BA, size: 0x8, addend: 0x0, symName: __ZNSt3__112__to_addressB7v160006IKcEEPT_S3_, symObjAddr: 0x36C4, symBinAddr: 0x100007884, symSize: 0x14 }
  - { offsetInCU: 0x8222, offset: 0x8222, size: 0x8, addend: 0x0, symName: __ZNSt3__19use_facetB7v160006INS_5ctypeIcEEEERKT_RKNS_6localeE, symObjAddr: 0x3994, symBinAddr: 0x100007B54, symSize: 0x2C }
  - { offsetInCU: 0x8602, offset: 0x8602, size: 0x8, addend: 0x0, symName: __ZNSt3__117__libcpp_allocateB7v160006Emm, symObjAddr: 0x3E30, symBinAddr: 0x100007FF0, symSize: 0x28 }
  - { offsetInCU: 0x863F, offset: 0x863F, size: 0x8, addend: 0x0, symName: __ZNSt3__121__libcpp_operator_newB7v160006IJmEEEPvDpT_, symObjAddr: 0x3E6C, symBinAddr: 0x10000802C, symSize: 0x24 }
  - { offsetInCU: 0x8879, offset: 0x8879, size: 0x8, addend: 0x0, symName: __ZNSt3__125__debug_db_invalidate_allB7v160006INS_12basic_stringIcNS_11char_traitsIcEENS_9allocatorIcEEEEEEvPT_, symObjAddr: 0x4244, symBinAddr: 0x100008404, symSize: 0x10 }
  - { offsetInCU: 0x8ADF, offset: 0x8ADF, size: 0x8, addend: 0x0, symName: __ZNSt3__17getlineB7v160006IcNS_11char_traitsIcEENS_9allocatorIcEEEERNS_13basic_istreamIT_T0_EES9_RNS_12basic_stringIS6_S7_T1_EES6_, symObjAddr: 0x4424, symBinAddr: 0x1000085E4, symSize: 0x234 }
  - { offsetInCU: 0x8B9D, offset: 0x8B9D, size: 0x8, addend: 0x0, symName: __ZNSt3__13maxB7v160006ImEERKT_S3_S3_, symObjAddr: 0x4DD8, symBinAddr: 0x100008F98, symSize: 0x2C }
  - { offsetInCU: 0x8BE0, offset: 0x8BE0, size: 0x8, addend: 0x0, symName: __ZNSt3__13minB7v160006ImEERKT_S3_S3_, symObjAddr: 0x4E04, symBinAddr: 0x100008FC4, symSize: 0x2C }
  - { offsetInCU: 0x8C23, offset: 0x8C23, size: 0x8, addend: 0x0, symName: __ZNSt3__13minB7v160006ImNS_6__lessImmEEEERKT_S5_S5_T0_, symObjAddr: 0x4E7C, symBinAddr: 0x10000903C, symSize: 0x54 }
  - { offsetInCU: 0x8CB8, offset: 0x8CB8, size: 0x8, addend: 0x0, symName: __ZNSt3__120__throw_length_errorB7v160006EPKc, symObjAddr: 0x4F50, symBinAddr: 0x100009110, symSize: 0x64 }
  - { offsetInCU: 0x8CE0, offset: 0x8CE0, size: 0x8, addend: 0x0, symName: __ZNSt3__13maxB7v160006ImNS_6__lessImmEEEERKT_S5_S5_T0_, symObjAddr: 0x5034, symBinAddr: 0x1000091F4, symSize: 0x54 }
  - { offsetInCU: 0x8D3A, offset: 0x8D3A, size: 0x8, addend: 0x0, symName: __ZNSt3__119__allocate_at_leastB7v160006INS_9allocatorI4BookEEEENS_19__allocation_resultINS_16allocator_traitsIT_E7pointerEEERS6_m, symObjAddr: 0x5198, symBinAddr: 0x100009358, symSize: 0x40 }
  - { offsetInCU: 0x8D7D, offset: 0x8D7D, size: 0x8, addend: 0x0, symName: __ZNSt3__142__uninitialized_allocator_move_if_noexceptB7v160006INS_9allocatorI4BookEENS_16reverse_iteratorIPS2_EES6_S6_EET2_RT_T0_T1_S7_, symObjAddr: 0x5378, symBinAddr: 0x100009538, symSize: 0x134 }
  - { offsetInCU: 0x8E1D, offset: 0x8E1D, size: 0x8, addend: 0x0, symName: __ZNSt3__14swapB7v160006IP4BookEEvRT_S4_, symObjAddr: 0x54F8, symBinAddr: 0x1000096B8, symSize: 0x3C }
  - { offsetInCU: 0x8E6E, offset: 0x8E6E, size: 0x8, addend: 0x0, symName: __ZNSt3__125__debug_db_invalidate_allB7v160006INS_6vectorI4BookNS_9allocatorIS2_EEEEEEvPT_, symObjAddr: 0x55E0, symBinAddr: 0x1000097A0, symSize: 0x10 }
  - { offsetInCU: 0x8E9F, offset: 0x8E9F, size: 0x8, addend: 0x0, symName: __ZNSt3__122__make_exception_guardB7v160006INS_29_AllocatorDestroyRangeReverseINS_9allocatorI4BookEENS_16reverse_iteratorIPS3_EEEEEENS_28__exception_guard_exceptionsIT_EESA_, symObjAddr: 0x55F0, symBinAddr: 0x1000097B0, symSize: 0x4C }
  - { offsetInCU: 0x8ED5, offset: 0x8ED5, size: 0x8, addend: 0x0, symName: __ZNSt3__1neB7v160006IP4BookS2_EEbRKNS_16reverse_iteratorIT_EERKNS3_IT0_EE, symObjAddr: 0x5680, symBinAddr: 0x100009840, symSize: 0x48 }
  - { offsetInCU: 0x8F21, offset: 0x8F21, size: 0x8, addend: 0x0, symName: __ZNSt3__112__to_addressB7v160006INS_16reverse_iteratorIP4BookEEvEENS_5decayIDTclsr19__to_address_helperIT_EE6__callclsr3stdE7declvalIRKS6_EEEEE4typeES8_, symObjAddr: 0x56C8, symBinAddr: 0x100009888, symSize: 0x24 }
  - { offsetInCU: 0x8F80, offset: 0x8F80, size: 0x8, addend: 0x0, symName: __ZNSt3__119__allocator_destroyB7v160006INS_9allocatorI4BookEENS_16reverse_iteratorINS4_IPS2_EEEES7_EEvRT_T0_T1_, symObjAddr: 0x5984, symBinAddr: 0x100009B44, symSize: 0x70 }
  - { offsetInCU: 0x8FE5, offset: 0x8FE5, size: 0x8, addend: 0x0, symName: __ZNSt3__1neB7v160006INS_16reverse_iteratorIP4BookEES4_EEbRKNS1_IT_EERKNS1_IT0_EE, symObjAddr: 0x5A30, symBinAddr: 0x100009BF0, symSize: 0x60 }
  - { offsetInCU: 0x9031, offset: 0x9031, size: 0x8, addend: 0x0, symName: __ZNSt3__112__to_addressB7v160006INS_16reverse_iteratorINS1_IP4BookEEEEvEENS_5decayIDTclsr19__to_address_helperIT_EE6__callclsr3stdE7declvalIRKS7_EEEEE4typeES9_, symObjAddr: 0x5A90, symBinAddr: 0x100009C50, symSize: 0x24 }
  - { offsetInCU: 0x9090, offset: 0x9090, size: 0x8, addend: 0x0, symName: __ZNSt3__1eqB7v160006IP4BookEEbRKNS_11__wrap_iterIT_EES7_, symObjAddr: 0x6040, symBinAddr: 0x10000A200, symSize: 0x48 }
  - { offsetInCU: 0x90D3, offset: 0x90D3, size: 0x8, addend: 0x0, symName: __ZNSt3__1miB7v160006IPK4BookS3_EENS_11__wrap_iterIT_E15difference_typeERKS6_RKNS4_IT0_EE, symObjAddr: 0x60A0, symBinAddr: 0x10000A260, symSize: 0x48 }
  - { offsetInCU: 0x911F, offset: 0x911F, size: 0x8, addend: 0x0, symName: __ZNSt3__14moveB7v160006IP4BookS2_EET0_T_S4_S3_, symObjAddr: 0x619C, symBinAddr: 0x10000A35C, symSize: 0x40 }
  - { offsetInCU: 0x9179, offset: 0x9179, size: 0x8, addend: 0x0, symName: __ZNSt3__16__moveB7v160006INS_17_ClassicAlgPolicyEP4BookS3_S3_EENS_4pairIT0_T2_EES5_T1_S6_, symObjAddr: 0x62BC, symBinAddr: 0x10000A47C, symSize: 0x44 }
  - { offsetInCU: 0x91E5, offset: 0x91E5, size: 0x8, addend: 0x0, symName: __ZNSt3__123__dispatch_copy_or_moveB7v160006INS_17_ClassicAlgPolicyENS_11__move_loopIS1_EENS_14__move_trivialEP4BookS6_S6_EENS_4pairIT2_T4_EES8_T3_S9_, symObjAddr: 0x6300, symBinAddr: 0x10000A4C0, symSize: 0x70 }
  - { offsetInCU: 0x9263, offset: 0x9263, size: 0x8, addend: 0x0, symName: __ZNSt3__121__unwrap_and_dispatchB7v160006INS_11__move_loopINS_17_ClassicAlgPolicyEEEP4BookS5_S5_Li0EEENS_4pairIT0_T2_EES7_T1_S8_, symObjAddr: 0x6370, symBinAddr: 0x10000A530, symSize: 0xB4 }
  - { offsetInCU: 0x92F1, offset: 0x92F1, size: 0x8, addend: 0x0, symName: __ZNSt3__121__unwrap_and_dispatchB7v160006INS_10__overloadINS_11__move_loopINS_17_ClassicAlgPolicyEEENS_14__move_trivialEEEP4BookS8_S8_Li0EEENS_4pairIT0_T2_EESA_T1_SB_, symObjAddr: 0x6424, symBinAddr: 0x10000A5E4, symSize: 0xB4 }
  - { offsetInCU: 0x937F, offset: 0x937F, size: 0x8, addend: 0x0, symName: __ZNSt3__114__unwrap_rangeB7v160006IP4BookS2_EENS_4pairIT0_S4_EET_S6_, symObjAddr: 0x64D8, symBinAddr: 0x10000A698, symSize: 0x60 }
  - { offsetInCU: 0x94D3, offset: 0x94D3, size: 0x8, addend: 0x0, symName: __ZNSt3__113__unwrap_iterB7v160006IP4BookNS_18__unwrap_iter_implIS2_Lb1EEELi0EEEDTclsrT0_8__unwrapclsr3stdE7declvalIT_EEEES6_, symObjAddr: 0x65C8, symBinAddr: 0x10000A788, symSize: 0x24 }
  - { offsetInCU: 0x9517, offset: 0x9517, size: 0x8, addend: 0x0, symName: __ZNSt3__19make_pairB7v160006IP4BookS2_EENS_4pairINS_18__unwrap_ref_decayIT_E4typeENS4_IT0_E4typeEEEOS5_OS8_, symObjAddr: 0x65EC, symBinAddr: 0x10000A7AC, symSize: 0x38 }
  - { offsetInCU: 0x9566, offset: 0x9566, size: 0x8, addend: 0x0, symName: __ZNSt3__114__rewrap_rangeB7v160006IP4BookS2_EET_S3_T0_, symObjAddr: 0x6624, symBinAddr: 0x10000A7E4, symSize: 0x2C }
  - { offsetInCU: 0x95B2, offset: 0x95B2, size: 0x8, addend: 0x0, symName: __ZNSt3__113__rewrap_iterB7v160006IP4BookS2_NS_18__unwrap_iter_implIS2_Lb1EEEEET_S5_T0_, symObjAddr: 0x6650, symBinAddr: 0x10000A810, symSize: 0x50 }
  - { offsetInCU: 0x96C4, offset: 0x96C4, size: 0x8, addend: 0x0, symName: __ZNSt3__1eqB7v160006IPK4BookEEbRKNS_11__wrap_iterIT_EES8_, symObjAddr: 0x68F0, symBinAddr: 0x10000AAB0, symSize: 0x48 }
  - { offsetInCU: 0x9707, offset: 0x9707, size: 0x8, addend: 0x0, symName: __ZNSt3__110__str_findB7v160006IcmNS_11char_traitsIcEELm18446744073709551615EEET0_PKT_S3_S6_S3_S3_, symObjAddr: 0x69EC, symBinAddr: 0x10000ABAC, symSize: 0xE4 }
  - { offsetInCU: 0x97AE, offset: 0x97AE, size: 0x8, addend: 0x0, symName: __ZNSt3__118__search_substringB7v160006IcNS_11char_traitsIcEEEEPKT_S5_S5_S5_S5_, symObjAddr: 0x6AD0, symBinAddr: 0x10000AC90, symSize: 0x154 }
  - { offsetInCU: 0x9848, offset: 0x9848, size: 0x8, addend: 0x0, symName: __ZNSt3__123__constexpr_char_memchrB7v160006EPKcim, symObjAddr: 0x6D28, symBinAddr: 0x10000AEE8, symSize: 0x34 }
  - { offsetInCU: 0x9890, offset: 0x9890, size: 0x8, addend: 0x0, symName: __ZNSt3__118__constexpr_memcmpB7v160006IcEEiPKT_S3_m, symObjAddr: 0x6D5C, symBinAddr: 0x10000AF1C, symSize: 0x34 }
  - { offsetInCU: 0x9AD5, offset: 0x9AD5, size: 0x8, addend: 0x0, symName: __ZSt28__throw_bad_array_new_lengthB7v160006v, symObjAddr: 0x3DFC, symBinAddr: 0x100007FBC, symSize: 0x34 }
  - { offsetInCU: 0x9C8C, offset: 0x9C8C, size: 0x8, addend: 0x0, symName: __ZL13usersFilePath, symObjAddr: 0x380E8, symBinAddr: 0x100010018, symSize: 0x0 }
  - { offsetInCU: 0xA118, offset: 0xA118, size: 0x8, addend: 0x0, symName: __ZNSt3__16vectorI4BookNS_9allocatorIS1_EEE26__swap_out_circular_bufferERNS_14__split_bufferIS1_RS3_EE, symObjAddr: 0x4C04, symBinAddr: 0x100008DC4, symSize: 0x118 }
  - { offsetInCU: 0xC39C, offset: 0xC39C, size: 0x8, addend: 0x0, symName: __ZNSt3__112basic_stringIcNS_11char_traitsIcEENS_9allocatorIcEEEC1B7v160006IDnEEPKc, symObjAddr: 0x0, symBinAddr: 0x1000041C0, symSize: 0x34 }
  - { offsetInCU: 0xC3D9, offset: 0xC3D9, size: 0x8, addend: 0x0, symName: _main, symObjAddr: 0x34, symBinAddr: 0x1000041F4, symSize: 0x254 }
  - { offsetInCU: 0xC447, offset: 0xC447, size: 0x8, addend: 0x0, symName: __ZNSt3__16vectorI4BookNS_9allocatorIS1_EEEC1B7v160006Ev, symObjAddr: 0x29C, symBinAddr: 0x10000445C, symSize: 0x2C }
  - { offsetInCU: 0xC470, offset: 0xC470, size: 0x8, addend: 0x0, symName: __Z11displayMenuv, symObjAddr: 0x2C8, symBinAddr: 0x100004488, symSize: 0x80 }
  - { offsetInCU: 0xC48A, offset: 0xC48A, size: 0x8, addend: 0x0, symName: __Z12registerUserv, symObjAddr: 0x390, symBinAddr: 0x100004550, symSize: 0x220 }
  - { offsetInCU: 0xC4D2, offset: 0xC4D2, size: 0x8, addend: 0x0, symName: __ZNSt3__112basic_stringIcNS_11char_traitsIcEENS_9allocatorIcEEEC1B7v160006Ev, symObjAddr: 0x5B0, symBinAddr: 0x100004770, symSize: 0x2C }
  - { offsetInCU: 0xC4FA, offset: 0xC4FA, size: 0x8, addend: 0x0, symName: __Z16authenticateUserRKNSt3__112basic_stringIcNS_11char_traitsIcEENS_9allocatorIcEEEES7_, symObjAddr: 0x8F0, symBinAddr: 0x100004AB0, symSize: 0x2D0 }
  - { offsetInCU: 0xC588, offset: 0xC588, size: 0x8, addend: 0x0, symName: __Z7addBookRNSt3__16vectorI4BookNS_9allocatorIS1_EEEE, symObjAddr: 0xBC0, symBinAddr: 0x100004D80, symSize: 0x3A0 }
  - { offsetInCU: 0xC5D0, offset: 0xC5D0, size: 0x8, addend: 0x0, symName: __Z10removeBookRNSt3__16vectorI4BookNS_9allocatorIS1_EEEE, symObjAddr: 0xF6C, symBinAddr: 0x10000512C, symSize: 0x550 }
  - { offsetInCU: 0xC6E4, offset: 0xC6E4, size: 0x8, addend: 0x0, symName: __Z12displayBooksRKNSt3__16vectorI4BookNS_9allocatorIS1_EEEE, symObjAddr: 0x14BC, symBinAddr: 0x10000567C, symSize: 0x204 }
  - { offsetInCU: 0xC760, offset: 0xC760, size: 0x8, addend: 0x0, symName: __ZNSt3__16vectorI4BookNS_9allocatorIS1_EEED1B7v160006Ev, symObjAddr: 0x16C0, symBinAddr: 0x100005880, symSize: 0x2C }
  - { offsetInCU: 0xC78E, offset: 0xC78E, size: 0x8, addend: 0x0, symName: __ZN4BookC1Ev, symObjAddr: 0x16EC, symBinAddr: 0x1000058AC, symSize: 0x2C }
  - { offsetInCU: 0xC7B9, offset: 0xC7B9, size: 0x8, addend: 0x0, symName: __ZNSt3__111char_traitsIcE3eofEv, symObjAddr: 0x1718, symBinAddr: 0x1000058D8, symSize: 0x8 }
  - { offsetInCU: 0xC7CD, offset: 0xC7CD, size: 0x8, addend: 0x0, symName: __ZNKSt3__16vectorI4BookNS_9allocatorIS1_EEE5emptyB7v160006Ev, symObjAddr: 0x177C, symBinAddr: 0x10000593C, symSize: 0x28 }
  - { offsetInCU: 0xC7F2, offset: 0xC7F2, size: 0x8, addend: 0x0, symName: __ZNSt3__16vectorI4BookNS_9allocatorIS1_EEE4backB7v160006Ev, symObjAddr: 0x17A4, symBinAddr: 0x100005964, symSize: 0x1C }
  - { offsetInCU: 0xC817, offset: 0xC817, size: 0x8, addend: 0x0, symName: __ZNSt3__16vectorI4BookNS_9allocatorIS1_EEE9push_backB7v160006ERKS1_, symObjAddr: 0x17C0, symBinAddr: 0x100005980, symSize: 0x6C }
  - { offsetInCU: 0xC8E4, offset: 0xC8E4, size: 0x8, addend: 0x0, symName: __ZNSt3__114basic_ofstreamIcNS_11char_traitsIcEEEC1ERKNS_12basic_stringIcS2_NS_9allocatorIcEEEEj, symObjAddr: 0x182C, symBinAddr: 0x1000059EC, symSize: 0x17C }
  - { offsetInCU: 0xC92D, offset: 0xC92D, size: 0x8, addend: 0x0, symName: __ZNKSt3__114basic_ofstreamIcNS_11char_traitsIcEEE7is_openEv, symObjAddr: 0x19A8, symBinAddr: 0x100005B68, symSize: 0x2C }
  - { offsetInCU: 0xC953, offset: 0xC953, size: 0x8, addend: 0x0, symName: __ZNSt3__113basic_ostreamIcNS_11char_traitsIcEEElsB7v160006EPFRNS_8ios_baseES5_E, symObjAddr: 0x1A60, symBinAddr: 0x100005C20, symSize: 0x40 }
  - { offsetInCU: 0xC986, offset: 0xC986, size: 0x8, addend: 0x0, symName: __ZNSt3__113basic_ostreamIcNS_11char_traitsIcEEElsB7v160006EPFRS3_S4_E, symObjAddr: 0x1AFC, symBinAddr: 0x100005CBC, symSize: 0x2C }
  - { offsetInCU: 0xC9B9, offset: 0xC9B9, size: 0x8, addend: 0x0, symName: __ZNSt3__114basic_ofstreamIcNS_11char_traitsIcEEE5closeEv, symObjAddr: 0x1B80, symBinAddr: 0x100005D40, symSize: 0x58 }
  - { offsetInCU: 0xC9E4, offset: 0xC9E4, size: 0x8, addend: 0x0, symName: __ZNSt3__114basic_ofstreamIcNS_11char_traitsIcEEED1Ev, symObjAddr: 0x1BD8, symBinAddr: 0x100005D98, symSize: 0x70 }
  - { offsetInCU: 0xCA10, offset: 0xCA10, size: 0x8, addend: 0x0, symName: __ZN4BookD1Ev, symObjAddr: 0x1C48, symBinAddr: 0x100005E08, symSize: 0x2C }
  - { offsetInCU: 0xCA3B, offset: 0xCA3B, size: 0x8, addend: 0x0, symName: __ZNSt3__16vectorI4BookNS_9allocatorIS1_EEE5beginB7v160006Ev, symObjAddr: 0x1C74, symBinAddr: 0x100005E34, symSize: 0x30 }
  - { offsetInCU: 0xCA61, offset: 0xCA61, size: 0x8, addend: 0x0, symName: __ZNSt3__16vectorI4BookNS_9allocatorIS1_EEE3endB7v160006Ev, symObjAddr: 0x1CA4, symBinAddr: 0x100005E64, symSize: 0x30 }
  - { offsetInCU: 0xCA87, offset: 0xCA87, size: 0x8, addend: 0x0, symName: __ZNKSt3__111__wrap_iterIP4BookEdeB7v160006Ev, symObjAddr: 0x1D08, symBinAddr: 0x100005EC8, symSize: 0x18 }
  - { offsetInCU: 0xCAAC, offset: 0xCAAC, size: 0x8, addend: 0x0, symName: __ZNSt3__111__wrap_iterIP4BookEppB7v160006Ev, symObjAddr: 0x1D20, symBinAddr: 0x100005EE0, symSize: 0x20 }
  - { offsetInCU: 0xCAD1, offset: 0xCAD1, size: 0x8, addend: 0x0, symName: __ZNKSt3__111__wrap_iterIP4BookEptB7v160006Ev, symObjAddr: 0x1D40, symBinAddr: 0x100005F00, symSize: 0x28 }
  - { offsetInCU: 0xCAF6, offset: 0xCAF6, size: 0x8, addend: 0x0, symName: __ZNSt3__16vectorI4BookNS_9allocatorIS1_EEE5eraseB7v160006ENS_11__wrap_iterIPKS1_EE, symObjAddr: 0x1D68, symBinAddr: 0x100005F28, symSize: 0xB4 }
  - { offsetInCU: 0xCB53, offset: 0xCB53, size: 0x8, addend: 0x0, symName: __ZNSt3__111__wrap_iterIPK4BookEC1B7v160006IPS1_EERKNS0_IT_EEPNS_9enable_ifIXsr14is_convertibleIS7_S3_EE5valueEvE4typeE, symObjAddr: 0x1E1C, symBinAddr: 0x100005FDC, symSize: 0x3C }
  - { offsetInCU: 0xCB9E, offset: 0xCB9E, size: 0x8, addend: 0x0, symName: __ZNKSt3__16vectorI4BookNS_9allocatorIS1_EEE5beginB7v160006Ev, symObjAddr: 0x1E58, symBinAddr: 0x100006018, symSize: 0x30 }
  - { offsetInCU: 0xCBC4, offset: 0xCBC4, size: 0x8, addend: 0x0, symName: __ZNKSt3__16vectorI4BookNS_9allocatorIS1_EEE3endB7v160006Ev, symObjAddr: 0x1E88, symBinAddr: 0x100006048, symSize: 0x30 }
  - { offsetInCU: 0xCBEA, offset: 0xCBEA, size: 0x8, addend: 0x0, symName: __ZNKSt3__111__wrap_iterIPK4BookEdeB7v160006Ev, symObjAddr: 0x1EEC, symBinAddr: 0x1000060AC, symSize: 0x18 }
  - { offsetInCU: 0xCC0F, offset: 0xCC0F, size: 0x8, addend: 0x0, symName: __ZNSt3__111__wrap_iterIPK4BookEppB7v160006Ev, symObjAddr: 0x1F04, symBinAddr: 0x1000060C4, symSize: 0x20 }
  - { offsetInCU: 0xCCC1, offset: 0xCCC1, size: 0x8, addend: 0x0, symName: __ZNSt3__114basic_ifstreamIcNS_11char_traitsIcEEEC1ERKNS_12basic_stringIcS2_NS_9allocatorIcEEEEj, symObjAddr: 0x1F24, symBinAddr: 0x1000060E4, symSize: 0x17C }
  - { offsetInCU: 0xCD0A, offset: 0xCD0A, size: 0x8, addend: 0x0, symName: __ZNKSt3__114basic_ifstreamIcNS_11char_traitsIcEEE7is_openEv, symObjAddr: 0x20A0, symBinAddr: 0x100006260, symSize: 0x2C }
  - { offsetInCU: 0xCD30, offset: 0xCD30, size: 0x8, addend: 0x0, symName: __ZNKSt3__19basic_iosIcNS_11char_traitsIcEEEcvPvB7v160006Ev, symObjAddr: 0x20CC, symBinAddr: 0x10000628C, symSize: 0x4C }
  - { offsetInCU: 0xCD55, offset: 0xCD55, size: 0x8, addend: 0x0, symName: __ZNKSt3__112basic_stringIcNS_11char_traitsIcEENS_9allocatorIcEEE4findB7v160006EPKcm, symObjAddr: 0x2118, symBinAddr: 0x1000062D8, symSize: 0x74 }
  - { offsetInCU: 0xCD99, offset: 0xCD99, size: 0x8, addend: 0x0, symName: __ZNKSt3__112basic_stringIcNS_11char_traitsIcEENS_9allocatorIcEEE6substrB7v160006Emm, symObjAddr: 0x218C, symBinAddr: 0x10000634C, symSize: 0x68 }
  - { offsetInCU: 0xCDDC, offset: 0xCDDC, size: 0x8, addend: 0x0, symName: __ZNSt3__114basic_ifstreamIcNS_11char_traitsIcEEE5closeEv, symObjAddr: 0x233C, symBinAddr: 0x1000064FC, symSize: 0x58 }
  - { offsetInCU: 0xCE07, offset: 0xCE07, size: 0x8, addend: 0x0, symName: __ZNSt3__114basic_ifstreamIcNS_11char_traitsIcEEED1Ev, symObjAddr: 0x2394, symBinAddr: 0x100006554, symSize: 0x70 }
  - { offsetInCU: 0xCE33, offset: 0xCE33, size: 0x8, addend: 0x0, symName: __ZN4BookC2Ev, symObjAddr: 0x2404, symBinAddr: 0x1000065C4, symSize: 0x70 }
  - { offsetInCU: 0xCE5E, offset: 0xCE5E, size: 0x8, addend: 0x0, symName: __ZNSt3__18ios_base4setfB7v160006Ejj, symObjAddr: 0x2474, symBinAddr: 0x100006634, symSize: 0x5C }
  - { offsetInCU: 0xCEB1, offset: 0xCEB1, size: 0x8, addend: 0x0, symName: __ZNSt3__18ios_base6unsetfB7v160006Ej, symObjAddr: 0x24D0, symBinAddr: 0x100006690, symSize: 0x28 }
  - { offsetInCU: 0xCEE7, offset: 0xCEE7, size: 0x8, addend: 0x0, symName: __ZNSt3__18__iom_t6C1B7v160006Ei, symObjAddr: 0x24F8, symBinAddr: 0x1000066B8, symSize: 0x34 }
  - { offsetInCU: 0xCF1E, offset: 0xCF1E, size: 0x8, addend: 0x0, symName: __ZNSt3__18__iom_t6C2B7v160006Ei, symObjAddr: 0x252C, symBinAddr: 0x1000066EC, symSize: 0x20 }
  - { offsetInCU: 0xCF55, offset: 0xCF55, size: 0x8, addend: 0x0, symName: __ZNSt3__114basic_ofstreamIcNS_11char_traitsIcEEED2Ev, symObjAddr: 0x254C, symBinAddr: 0x10000670C, symSize: 0x9C }
  - { offsetInCU: 0xCF8D, offset: 0xCF8D, size: 0x8, addend: 0x0, symName: __ZTv0_n24_NSt3__114basic_ofstreamIcNS_11char_traitsIcEEED1Ev, symObjAddr: 0x25E8, symBinAddr: 0x1000067A8, symSize: 0x28 }
  - { offsetInCU: 0xCFA4, offset: 0xCFA4, size: 0x8, addend: 0x0, symName: __ZN4BookD2Ev, symObjAddr: 0x2610, symBinAddr: 0x1000067D0, symSize: 0x6C }
  - { offsetInCU: 0xCFCF, offset: 0xCFCF, size: 0x8, addend: 0x0, symName: __ZNSt3__114basic_ifstreamIcNS_11char_traitsIcEEED2Ev, symObjAddr: 0x267C, symBinAddr: 0x10000683C, symSize: 0x9C }
  - { offsetInCU: 0xD007, offset: 0xD007, size: 0x8, addend: 0x0, symName: __ZTv0_n24_NSt3__114basic_ifstreamIcNS_11char_traitsIcEEED1Ev, symObjAddr: 0x2718, symBinAddr: 0x1000068D8, symSize: 0x28 }
  - { offsetInCU: 0xD01E, offset: 0xD01E, size: 0x8, addend: 0x0, symName: __ZNSt3__112basic_stringIcNS_11char_traitsIcEENS_9allocatorIcEEEC2B7v160006IDnEEPKc, symObjAddr: 0x2740, symBinAddr: 0x100006900, symSize: 0x60 }
  - { offsetInCU: 0xD060, offset: 0xD060, size: 0x8, addend: 0x0, symName: __ZNSt3__117__compressed_pairINS_12basic_stringIcNS_11char_traitsIcEENS_9allocatorIcEEE5__repES5_EC1B7v160006INS_18__default_init_tagESA_EEOT_OT0_, symObjAddr: 0x27A0, symBinAddr: 0x100006960, symSize: 0x3C }
  - { offsetInCU: 0xD0B7, offset: 0xD0B7, size: 0x8, addend: 0x0, symName: __ZNSt3__111char_traitsIcE6lengthEPKc, symObjAddr: 0x27DC, symBinAddr: 0x10000699C, symSize: 0x48 }
  - { offsetInCU: 0xD0DA, offset: 0xD0DA, size: 0x8, addend: 0x0, symName: __ZNSt3__117__compressed_pairINS_12basic_stringIcNS_11char_traitsIcEENS_9allocatorIcEEE5__repES5_EC2B7v160006INS_18__default_init_tagESA_EEOT_OT0_, symObjAddr: 0x2834, symBinAddr: 0x1000069F4, symSize: 0x3C }
  - { offsetInCU: 0xD131, offset: 0xD131, size: 0x8, addend: 0x0, symName: __ZNSt3__122__compressed_pair_elemINS_12basic_stringIcNS_11char_traitsIcEENS_9allocatorIcEEE5__repELi0ELb0EEC2B7v160006ENS_18__default_init_tagE, symObjAddr: 0x2870, symBinAddr: 0x100006A30, symSize: 0x14 }
  - { offsetInCU: 0xD165, offset: 0xD165, size: 0x8, addend: 0x0, symName: __ZNSt3__122__compressed_pair_elemINS_9allocatorIcEELi1ELb1EEC2B7v160006ENS_18__default_init_tagE, symObjAddr: 0x2884, symBinAddr: 0x100006A44, symSize: 0x2C }
  - { offsetInCU: 0xD199, offset: 0xD199, size: 0x8, addend: 0x0, symName: __ZNSt3__19allocatorIcEC2B7v160006Ev, symObjAddr: 0x28B0, symBinAddr: 0x100006A70, symSize: 0x2C }
  - { offsetInCU: 0xD1C2, offset: 0xD1C2, size: 0x8, addend: 0x0, symName: __ZNSt3__116__non_trivial_ifILb1ENS_9allocatorIcEEEC2B7v160006Ev, symObjAddr: 0x28DC, symBinAddr: 0x100006A9C, symSize: 0x14 }
  - { offsetInCU: 0xD1EB, offset: 0xD1EB, size: 0x8, addend: 0x0, symName: __ZNSt3__16vectorI4BookNS_9allocatorIS1_EEEC2B7v160006Ev, symObjAddr: 0x2914, symBinAddr: 0x100006AD4, symSize: 0x4C }
  - { offsetInCU: 0xD219, offset: 0xD219, size: 0x8, addend: 0x0, symName: __ZNSt3__117__compressed_pairIP4BookNS_9allocatorIS1_EEEC1B7v160006IDnNS_18__default_init_tagEEEOT_OT0_, symObjAddr: 0x2960, symBinAddr: 0x100006B20, symSize: 0x3C }
  - { offsetInCU: 0xD270, offset: 0xD270, size: 0x8, addend: 0x0, symName: __ZNSt3__117__compressed_pairIP4BookNS_9allocatorIS1_EEEC2B7v160006IDnNS_18__default_init_tagEEEOT_OT0_, symObjAddr: 0x29AC, symBinAddr: 0x100006B6C, symSize: 0x40 }
  - { offsetInCU: 0xD2C7, offset: 0xD2C7, size: 0x8, addend: 0x0, symName: __ZNSt3__122__compressed_pair_elemIP4BookLi0ELb0EEC2B7v160006IDnvEEOT_, symObjAddr: 0x29EC, symBinAddr: 0x100006BAC, symSize: 0x1C }
  - { offsetInCU: 0xD308, offset: 0xD308, size: 0x8, addend: 0x0, symName: __ZNSt3__122__compressed_pair_elemINS_9allocatorI4BookEELi1ELb1EEC2B7v160006ENS_18__default_init_tagE, symObjAddr: 0x2A08, symBinAddr: 0x100006BC8, symSize: 0x2C }
  - { offsetInCU: 0xD33C, offset: 0xD33C, size: 0x8, addend: 0x0, symName: __ZNSt3__19allocatorI4BookEC2B7v160006Ev, symObjAddr: 0x2A34, symBinAddr: 0x100006BF4, symSize: 0x2C }
  - { offsetInCU: 0xD365, offset: 0xD365, size: 0x8, addend: 0x0, symName: __ZNSt3__116__non_trivial_ifILb1ENS_9allocatorI4BookEEEC2B7v160006Ev, symObjAddr: 0x2A60, symBinAddr: 0x100006C20, symSize: 0x14 }
  - { offsetInCU: 0xD38E, offset: 0xD38E, size: 0x8, addend: 0x0, symName: __ZNSt3__16vectorI4BookNS_9allocatorIS1_EEED2B7v160006Ev, symObjAddr: 0x2A74, symBinAddr: 0x100006C34, symSize: 0x3C }
  - { offsetInCU: 0xD3B7, offset: 0xD3B7, size: 0x8, addend: 0x0, symName: __ZNSt3__16vectorI4BookNS_9allocatorIS1_EEE16__destroy_vectorC1ERS4_, symObjAddr: 0x2AB0, symBinAddr: 0x100006C70, symSize: 0x34 }
  - { offsetInCU: 0xD3EF, offset: 0xD3EF, size: 0x8, addend: 0x0, symName: __ZNSt3__16vectorI4BookNS_9allocatorIS1_EEE16__destroy_vectorclB7v160006Ev, symObjAddr: 0x2AE4, symBinAddr: 0x100006CA4, symSize: 0x9C }
  - { offsetInCU: 0xD414, offset: 0xD414, size: 0x8, addend: 0x0, symName: __ZNSt3__16vectorI4BookNS_9allocatorIS1_EEE16__destroy_vectorC2ERS4_, symObjAddr: 0x2B80, symBinAddr: 0x100006D40, symSize: 0x20 }
  - { offsetInCU: 0xD44C, offset: 0xD44C, size: 0x8, addend: 0x0, symName: __ZNKSt3__16vectorI4BookNS_9allocatorIS1_EEE17__annotate_deleteB7v160006Ev, symObjAddr: 0x2BA0, symBinAddr: 0x100006D60, symSize: 0xB8 }
  - { offsetInCU: 0xD471, offset: 0xD471, size: 0x8, addend: 0x0, symName: __ZNSt3__16vectorI4BookNS_9allocatorIS1_EEE7__clearB7v160006Ev, symObjAddr: 0x2C68, symBinAddr: 0x100006E28, symSize: 0x28 }
  - { offsetInCU: 0xD496, offset: 0xD496, size: 0x8, addend: 0x0, symName: __ZNSt3__116allocator_traitsINS_9allocatorI4BookEEE10deallocateB7v160006ERS3_PS2_m, symObjAddr: 0x2C90, symBinAddr: 0x100006E50, symSize: 0x34 }
  - { offsetInCU: 0xD4D8, offset: 0xD4D8, size: 0x8, addend: 0x0, symName: __ZNSt3__16vectorI4BookNS_9allocatorIS1_EEE7__allocB7v160006Ev, symObjAddr: 0x2CC4, symBinAddr: 0x100006E84, symSize: 0x28 }
  - { offsetInCU: 0xD4FD, offset: 0xD4FD, size: 0x8, addend: 0x0, symName: __ZNKSt3__16vectorI4BookNS_9allocatorIS1_EEE8capacityB7v160006Ev, symObjAddr: 0x2CEC, symBinAddr: 0x100006EAC, symSize: 0x40 }
  - { offsetInCU: 0xD522, offset: 0xD522, size: 0x8, addend: 0x0, symName: __ZNKSt3__16vectorI4BookNS_9allocatorIS1_EEE31__annotate_contiguous_containerB7v160006EPKvS6_S6_S6_, symObjAddr: 0x2D2C, symBinAddr: 0x100006EEC, symSize: 0x20 }
  - { offsetInCU: 0xD577, offset: 0xD577, size: 0x8, addend: 0x0, symName: __ZNKSt3__16vectorI4BookNS_9allocatorIS1_EEE4dataB7v160006Ev, symObjAddr: 0x2D4C, symBinAddr: 0x100006F0C, symSize: 0x28 }
  - { offsetInCU: 0xD59C, offset: 0xD59C, size: 0x8, addend: 0x0, symName: __ZNKSt3__16vectorI4BookNS_9allocatorIS1_EEE4sizeB7v160006Ev, symObjAddr: 0x2D74, symBinAddr: 0x100006F34, symSize: 0x28 }
  - { offsetInCU: 0xD5C1, offset: 0xD5C1, size: 0x8, addend: 0x0, symName: __ZNSt3__16vectorI4BookNS_9allocatorIS1_EEE22__base_destruct_at_endB7v160006EPS1_, symObjAddr: 0x2DB0, symBinAddr: 0x100006F70, symSize: 0xA0 }
  - { offsetInCU: 0xD604, offset: 0xD604, size: 0x8, addend: 0x0, symName: __ZNSt3__116allocator_traitsINS_9allocatorI4BookEEE7destroyB7v160006IS2_vEEvRS3_PT_, symObjAddr: 0x2E50, symBinAddr: 0x100007010, symSize: 0x2C }
  - { offsetInCU: 0xD641, offset: 0xD641, size: 0x8, addend: 0x0, symName: __ZNSt3__19allocatorI4BookE7destroyB7v160006EPS1_, symObjAddr: 0x2E7C, symBinAddr: 0x10000703C, symSize: 0x28 }
  - { offsetInCU: 0xD674, offset: 0xD674, size: 0x8, addend: 0x0, symName: __ZNSt3__19allocatorI4BookE10deallocateB7v160006EPS1_m, symObjAddr: 0x2EA4, symBinAddr: 0x100007064, symSize: 0x70 }
  - { offsetInCU: 0xD6B5, offset: 0xD6B5, size: 0x8, addend: 0x0, symName: __ZNSt3__117__compressed_pairIP4BookNS_9allocatorIS1_EEE6secondB7v160006Ev, symObjAddr: 0x2F9C, symBinAddr: 0x10000715C, symSize: 0x24 }
  - { offsetInCU: 0xD6DA, offset: 0xD6DA, size: 0x8, addend: 0x0, symName: __ZNSt3__122__compressed_pair_elemINS_9allocatorI4BookEELi1ELb1EE5__getB7v160006Ev, symObjAddr: 0x2FC0, symBinAddr: 0x100007180, symSize: 0x14 }
  - { offsetInCU: 0xD6FF, offset: 0xD6FF, size: 0x8, addend: 0x0, symName: __ZNKSt3__16vectorI4BookNS_9allocatorIS1_EEE9__end_capB7v160006Ev, symObjAddr: 0x2FD4, symBinAddr: 0x100007194, symSize: 0x28 }
  - { offsetInCU: 0xD724, offset: 0xD724, size: 0x8, addend: 0x0, symName: __ZNKSt3__117__compressed_pairIP4BookNS_9allocatorIS1_EEE5firstB7v160006Ev, symObjAddr: 0x2FFC, symBinAddr: 0x1000071BC, symSize: 0x24 }
  - { offsetInCU: 0xD749, offset: 0xD749, size: 0x8, addend: 0x0, symName: __ZNKSt3__122__compressed_pair_elemIP4BookLi0ELb0EE5__getB7v160006Ev, symObjAddr: 0x3020, symBinAddr: 0x1000071E0, symSize: 0x14 }
  - { offsetInCU: 0xD78C, offset: 0xD78C, size: 0x8, addend: 0x0, symName: __ZNKSt3__113basic_ostreamIcNS_11char_traitsIcEEE6sentrycvbB7v160006Ev, symObjAddr: 0x3228, symBinAddr: 0x1000073E8, symSize: 0x1C }
  - { offsetInCU: 0xD7B1, offset: 0xD7B1, size: 0x8, addend: 0x0, symName: __ZNSt3__119ostreambuf_iteratorIcNS_11char_traitsIcEEEC1B7v160006ERNS_13basic_ostreamIcS2_EE, symObjAddr: 0x348C, symBinAddr: 0x10000764C, symSize: 0x34 }
  - { offsetInCU: 0xD7E8, offset: 0xD7E8, size: 0x8, addend: 0x0, symName: __ZNKSt3__18ios_base5flagsB7v160006Ev, symObjAddr: 0x34C0, symBinAddr: 0x100007680, symSize: 0x18 }
  - { offsetInCU: 0xD80F, offset: 0xD80F, size: 0x8, addend: 0x0, symName: __ZNKSt3__19basic_iosIcNS_11char_traitsIcEEE4fillB7v160006Ev, symObjAddr: 0x34D8, symBinAddr: 0x100007698, symSize: 0x64 }
  - { offsetInCU: 0xD835, offset: 0xD835, size: 0x8, addend: 0x0, symName: __ZNKSt3__119ostreambuf_iteratorIcNS_11char_traitsIcEEE6failedB7v160006Ev, symObjAddr: 0x353C, symBinAddr: 0x1000076FC, symSize: 0x24 }
  - { offsetInCU: 0xD85A, offset: 0xD85A, size: 0x8, addend: 0x0, symName: __ZNSt3__19basic_iosIcNS_11char_traitsIcEEE8setstateB7v160006Ej, symObjAddr: 0x3560, symBinAddr: 0x100007720, symSize: 0x2C }
  - { offsetInCU: 0xD88E, offset: 0xD88E, size: 0x8, addend: 0x0, symName: __ZNKSt3__18ios_base5widthB7v160006Ev, symObjAddr: 0x358C, symBinAddr: 0x10000774C, symSize: 0x18 }
  - { offsetInCU: 0xD8B5, offset: 0xD8B5, size: 0x8, addend: 0x0, symName: __ZNSt3__115basic_streambufIcNS_11char_traitsIcEEE5sputnB7v160006EPKcl, symObjAddr: 0x35A4, symBinAddr: 0x100007764, symSize: 0x3C }
  - { offsetInCU: 0xD8F6, offset: 0xD8F6, size: 0x8, addend: 0x0, symName: __ZNSt3__112basic_stringIcNS_11char_traitsIcEENS_9allocatorIcEEEC1B7v160006Emc, symObjAddr: 0x35E0, symBinAddr: 0x1000077A0, symSize: 0x3C }
  - { offsetInCU: 0xD93D, offset: 0xD93D, size: 0x8, addend: 0x0, symName: __ZNKSt3__112basic_stringIcNS_11char_traitsIcEENS_9allocatorIcEEE4dataB7v160006Ev, symObjAddr: 0x361C, symBinAddr: 0x1000077DC, symSize: 0x28 }
  - { offsetInCU: 0xD962, offset: 0xD962, size: 0x8, addend: 0x0, symName: __ZNSt3__18ios_base5widthB7v160006El, symObjAddr: 0x3644, symBinAddr: 0x100007804, symSize: 0x2C }
  - { offsetInCU: 0xD9A7, offset: 0xD9A7, size: 0x8, addend: 0x0, symName: __ZNSt3__112basic_stringIcNS_11char_traitsIcEENS_9allocatorIcEEEC2B7v160006Emc, symObjAddr: 0x3670, symBinAddr: 0x100007830, symSize: 0x54 }
  - { offsetInCU: 0xD9EE, offset: 0xD9EE, size: 0x8, addend: 0x0, symName: __ZNKSt3__112basic_stringIcNS_11char_traitsIcEENS_9allocatorIcEEE13__get_pointerB7v160006Ev, symObjAddr: 0x36D8, symBinAddr: 0x100007898, symSize: 0x54 }
  - { offsetInCU: 0xDA13, offset: 0xDA13, size: 0x8, addend: 0x0, symName: __ZNKSt3__112basic_stringIcNS_11char_traitsIcEENS_9allocatorIcEEE9__is_longB7v160006Ev, symObjAddr: 0x372C, symBinAddr: 0x1000078EC, symSize: 0x74 }
  - { offsetInCU: 0xDA38, offset: 0xDA38, size: 0x8, addend: 0x0, symName: __ZNKSt3__112basic_stringIcNS_11char_traitsIcEENS_9allocatorIcEEE18__get_long_pointerB7v160006Ev, symObjAddr: 0x37A0, symBinAddr: 0x100007960, symSize: 0x28 }
  - { offsetInCU: 0xDA5D, offset: 0xDA5D, size: 0x8, addend: 0x0, symName: __ZNKSt3__112basic_stringIcNS_11char_traitsIcEENS_9allocatorIcEEE19__get_short_pointerB7v160006Ev, symObjAddr: 0x37C8, symBinAddr: 0x100007988, symSize: 0x28 }
  - { offsetInCU: 0xDA82, offset: 0xDA82, size: 0x8, addend: 0x0, symName: __ZNKSt3__117__compressed_pairINS_12basic_stringIcNS_11char_traitsIcEENS_9allocatorIcEEE5__repES5_E5firstB7v160006Ev, symObjAddr: 0x37F0, symBinAddr: 0x1000079B0, symSize: 0x24 }
  - { offsetInCU: 0xDAA7, offset: 0xDAA7, size: 0x8, addend: 0x0, symName: __ZNKSt3__122__compressed_pair_elemINS_12basic_stringIcNS_11char_traitsIcEENS_9allocatorIcEEE5__repELi0ELb0EE5__getB7v160006Ev, symObjAddr: 0x3814, symBinAddr: 0x1000079D4, symSize: 0x14 }
  - { offsetInCU: 0xDACC, offset: 0xDACC, size: 0x8, addend: 0x0, symName: __ZNSt3__114pointer_traitsIPKcE10pointer_toB7v160006ERS1_, symObjAddr: 0x3828, symBinAddr: 0x1000079E8, symSize: 0x14 }
  - { offsetInCU: 0xDAEF, offset: 0xDAEF, size: 0x8, addend: 0x0, symName: __ZNSt3__119ostreambuf_iteratorIcNS_11char_traitsIcEEEC2B7v160006ERNS_13basic_ostreamIcS2_EE, symObjAddr: 0x383C, symBinAddr: 0x1000079FC, symSize: 0x68 }
  - { offsetInCU: 0xDB26, offset: 0xDB26, size: 0x8, addend: 0x0, symName: __ZNKSt3__19basic_iosIcNS_11char_traitsIcEEE5rdbufB7v160006Ev, symObjAddr: 0x38A4, symBinAddr: 0x100007A64, symSize: 0x24 }
  - { offsetInCU: 0xDB4C, offset: 0xDB4C, size: 0x8, addend: 0x0, symName: __ZNKSt3__18ios_base5rdbufB7v160006Ev, symObjAddr: 0x38C8, symBinAddr: 0x100007A88, symSize: 0x18 }
  - { offsetInCU: 0xDB71, offset: 0xDB71, size: 0x8, addend: 0x0, symName: __ZNSt3__111char_traitsIcE11eq_int_typeEii, symObjAddr: 0x38E0, symBinAddr: 0x100007AA0, symSize: 0x28 }
  - { offsetInCU: 0xDBA2, offset: 0xDBA2, size: 0x8, addend: 0x0, symName: __ZNKSt3__19basic_iosIcNS_11char_traitsIcEEE5widenB7v160006Ec, symObjAddr: 0x3908, symBinAddr: 0x100007AC8, symSize: 0x8C }
  - { offsetInCU: 0xDC04, offset: 0xDC04, size: 0x8, addend: 0x0, symName: __ZNKSt3__15ctypeIcE5widenB7v160006Ec, symObjAddr: 0x39C0, symBinAddr: 0x100007B80, symSize: 0x38 }
  - { offsetInCU: 0xDC38, offset: 0xDC38, size: 0x8, addend: 0x0, symName: __ZNSt3__18ios_base8setstateB7v160006Ej, symObjAddr: 0x39F8, symBinAddr: 0x100007BB8, symSize: 0x34 }
  - { offsetInCU: 0xDC6D, offset: 0xDC6D, size: 0x8, addend: 0x0, symName: __ZNSt3__112basic_stringIcNS_11char_traitsIcEENS_9allocatorIcEEEC2B7v160006Ev, symObjAddr: 0x3A2C, symBinAddr: 0x100007BEC, symSize: 0x44 }
  - { offsetInCU: 0xDC96, offset: 0xDC96, size: 0x8, addend: 0x0, symName: __ZNSt3__112basic_stringIcNS_11char_traitsIcEENS_9allocatorIcEEE14__default_initB7v160006Ev, symObjAddr: 0x3A70, symBinAddr: 0x100007C30, symSize: 0xB0 }
  - { offsetInCU: 0xDCE8, offset: 0xDCE8, size: 0x8, addend: 0x0, symName: __ZNSt3__117__compressed_pairINS_12basic_stringIcNS_11char_traitsIcEENS_9allocatorIcEEE5__repES5_E5firstB7v160006Ev, symObjAddr: 0x3B20, symBinAddr: 0x100007CE0, symSize: 0x24 }
  - { offsetInCU: 0xDD0D, offset: 0xDD0D, size: 0x8, addend: 0x0, symName: __ZNSt3__112basic_stringIcNS_11char_traitsIcEENS_9allocatorIcEEE11__recommendB7v160006Em, symObjAddr: 0x3B44, symBinAddr: 0x100007D04, symSize: 0x9C }
  - { offsetInCU: 0xDD40, offset: 0xDD40, size: 0x8, addend: 0x0, symName: __ZNSt3__116allocator_traitsINS_9allocatorIcEEE8allocateB7v160006ERS2_m, symObjAddr: 0x3BE0, symBinAddr: 0x100007DA0, symSize: 0x2C }
  - { offsetInCU: 0xDD73, offset: 0xDD73, size: 0x8, addend: 0x0, symName: __ZNSt3__112basic_stringIcNS_11char_traitsIcEENS_9allocatorIcEEE7__allocB7v160006Ev, symObjAddr: 0x3C0C, symBinAddr: 0x100007DCC, symSize: 0x24 }
  - { offsetInCU: 0xDD98, offset: 0xDD98, size: 0x8, addend: 0x0, symName: __ZNSt3__112basic_stringIcNS_11char_traitsIcEENS_9allocatorIcEEE16__begin_lifetimeB7v160006EPcm, symObjAddr: 0x3C30, symBinAddr: 0x100007DF0, symSize: 0x14 }
  - { offsetInCU: 0xDDCB, offset: 0xDDCB, size: 0x8, addend: 0x0, symName: __ZNSt3__112basic_stringIcNS_11char_traitsIcEENS_9allocatorIcEEE18__set_long_pointerB7v160006EPc, symObjAddr: 0x3C44, symBinAddr: 0x100007E04, symSize: 0x38 }
  - { offsetInCU: 0xDDFF, offset: 0xDDFF, size: 0x8, addend: 0x0, symName: __ZNSt3__112basic_stringIcNS_11char_traitsIcEENS_9allocatorIcEEE14__set_long_capB7v160006Em, symObjAddr: 0x3C7C, symBinAddr: 0x100007E3C, symSize: 0x70 }
  - { offsetInCU: 0xDE33, offset: 0xDE33, size: 0x8, addend: 0x0, symName: __ZNSt3__112basic_stringIcNS_11char_traitsIcEENS_9allocatorIcEEE15__set_long_sizeB7v160006Em, symObjAddr: 0x3CEC, symBinAddr: 0x100007EAC, symSize: 0x38 }
  - { offsetInCU: 0xDE67, offset: 0xDE67, size: 0x8, addend: 0x0, symName: __ZNSt3__122__compressed_pair_elemINS_12basic_stringIcNS_11char_traitsIcEENS_9allocatorIcEEE5__repELi0ELb0EE5__getB7v160006Ev, symObjAddr: 0x3D24, symBinAddr: 0x100007EE4, symSize: 0x14 }
  - { offsetInCU: 0xDE8C, offset: 0xDE8C, size: 0x8, addend: 0x0, symName: __ZNSt3__112basic_stringIcNS_11char_traitsIcEENS_9allocatorIcEEE10__align_itB7v160006ILm16EEEmm, symObjAddr: 0x3D38, symBinAddr: 0x100007EF8, symSize: 0x1C }
  - { offsetInCU: 0xDEBA, offset: 0xDEBA, size: 0x8, addend: 0x0, symName: __ZNSt3__19allocatorIcE8allocateB7v160006Em, symObjAddr: 0x3D54, symBinAddr: 0x100007F14, symSize: 0x84 }
  - { offsetInCU: 0xDEF7, offset: 0xDEF7, size: 0x8, addend: 0x0, symName: __ZNSt3__116allocator_traitsINS_9allocatorIcEEE8max_sizeB7v160006IS2_vEEmRKS2_, symObjAddr: 0x3DD8, symBinAddr: 0x100007F98, symSize: 0x24 }
  - { offsetInCU: 0xDF25, offset: 0xDF25, size: 0x8, addend: 0x0, symName: __ZNKSt3__19allocatorIcE8max_sizeB7v160006Ev, symObjAddr: 0x3E58, symBinAddr: 0x100008018, symSize: 0x14 }
  - { offsetInCU: 0xDF4A, offset: 0xDF4A, size: 0x8, addend: 0x0, symName: __ZNSt3__117__compressed_pairINS_12basic_stringIcNS_11char_traitsIcEENS_9allocatorIcEEE5__repES5_E6secondB7v160006Ev, symObjAddr: 0x3E90, symBinAddr: 0x100008050, symSize: 0x24 }
  - { offsetInCU: 0xDF6F, offset: 0xDF6F, size: 0x8, addend: 0x0, symName: __ZNSt3__122__compressed_pair_elemINS_9allocatorIcEELi1ELb1EE5__getB7v160006Ev, symObjAddr: 0x3EB4, symBinAddr: 0x100008074, symSize: 0x14 }
  - { offsetInCU: 0xDFB2, offset: 0xDFB2, size: 0x8, addend: 0x0, symName: __ZNKSt3__113basic_istreamIcNS_11char_traitsIcEEE6sentrycvbB7v160006Ev, symObjAddr: 0x3EC8, symBinAddr: 0x100008088, symSize: 0x1C }
  - { offsetInCU: 0xDFD7, offset: 0xDFD7, size: 0x8, addend: 0x0, symName: __ZNSt3__112basic_stringIcNS_11char_traitsIcEENS_9allocatorIcEEE5clearB7v160006Ev, symObjAddr: 0x3EE4, symBinAddr: 0x1000080A4, symSize: 0x9C }
  - { offsetInCU: 0xDFFD, offset: 0xDFFD, size: 0x8, addend: 0x0, symName: __ZNKSt3__112basic_stringIcNS_11char_traitsIcEENS_9allocatorIcEEE8max_sizeB7v160006Ev, symObjAddr: 0x3F80, symBinAddr: 0x100008140, symSize: 0xAC }
  - { offsetInCU: 0xE04F, offset: 0xE04F, size: 0x8, addend: 0x0, symName: __ZNSt3__114numeric_limitsIlE3maxB7v160006Ev, symObjAddr: 0x402C, symBinAddr: 0x1000081EC, symSize: 0x14 }
  - { offsetInCU: 0xE063, offset: 0xE063, size: 0x8, addend: 0x0, symName: __ZNSt3__115basic_streambufIcNS_11char_traitsIcEEE5sgetcB7v160006Ev, symObjAddr: 0x4040, symBinAddr: 0x100008200, symSize: 0x70 }
  - { offsetInCU: 0xE088, offset: 0xE088, size: 0x8, addend: 0x0, symName: __ZNSt3__111char_traitsIcE12to_char_typeEi, symObjAddr: 0x40B0, symBinAddr: 0x100008270, symSize: 0x18 }
  - { offsetInCU: 0xE0AB, offset: 0xE0AB, size: 0x8, addend: 0x0, symName: __ZNKSt3__15ctypeIcE2isB7v160006Ejc, symObjAddr: 0x40C8, symBinAddr: 0x100008288, symSize: 0x7C }
  - { offsetInCU: 0xE0EE, offset: 0xE0EE, size: 0x8, addend: 0x0, symName: __ZNSt3__115basic_streambufIcNS_11char_traitsIcEEE6sbumpcB7v160006Ev, symObjAddr: 0x4144, symBinAddr: 0x100008304, symSize: 0x78 }
  - { offsetInCU: 0xE113, offset: 0xE113, size: 0x8, addend: 0x0, symName: __ZNSt3__18ios_base18__setstate_nothrowB7v160006Ej, symObjAddr: 0x41BC, symBinAddr: 0x10000837C, symSize: 0x64 }
  - { offsetInCU: 0xE147, offset: 0xE147, size: 0x8, addend: 0x0, symName: __ZNKSt3__19basic_iosIcNS_11char_traitsIcEEE10exceptionsB7v160006Ev, symObjAddr: 0x4220, symBinAddr: 0x1000083E0, symSize: 0x24 }
  - { offsetInCU: 0xE16C, offset: 0xE16C, size: 0x8, addend: 0x0, symName: __ZNSt3__111char_traitsIcE6assignERcRKc, symObjAddr: 0x4254, symBinAddr: 0x100008414, symSize: 0x24 }
  - { offsetInCU: 0xE19D, offset: 0xE19D, size: 0x8, addend: 0x0, symName: __ZNSt3__112basic_stringIcNS_11char_traitsIcEENS_9allocatorIcEEE18__get_long_pointerB7v160006Ev, symObjAddr: 0x4278, symBinAddr: 0x100008438, symSize: 0x28 }
  - { offsetInCU: 0xE1C2, offset: 0xE1C2, size: 0x8, addend: 0x0, symName: __ZNSt3__112basic_stringIcNS_11char_traitsIcEENS_9allocatorIcEEE19__get_short_pointerB7v160006Ev, symObjAddr: 0x42A0, symBinAddr: 0x100008460, symSize: 0x28 }
  - { offsetInCU: 0xE1E7, offset: 0xE1E7, size: 0x8, addend: 0x0, symName: __ZNSt3__112basic_stringIcNS_11char_traitsIcEENS_9allocatorIcEEE16__set_short_sizeB7v160006Em, symObjAddr: 0x42C8, symBinAddr: 0x100008488, symSize: 0x78 }
  - { offsetInCU: 0xE21B, offset: 0xE21B, size: 0x8, addend: 0x0, symName: __ZNSt3__114pointer_traitsIPcE10pointer_toB7v160006ERc, symObjAddr: 0x4340, symBinAddr: 0x100008500, symSize: 0x14 }
  - { offsetInCU: 0xE23E, offset: 0xE23E, size: 0x8, addend: 0x0, symName: __ZNKSt3__112basic_stringIcNS_11char_traitsIcEENS_9allocatorIcEEE7__allocB7v160006Ev, symObjAddr: 0x4354, symBinAddr: 0x100008514, symSize: 0x24 }
  - { offsetInCU: 0xE263, offset: 0xE263, size: 0x8, addend: 0x0, symName: __ZNSt3__114numeric_limitsImE3maxB7v160006Ev, symObjAddr: 0x4378, symBinAddr: 0x100008538, symSize: 0x14 }
  - { offsetInCU: 0xE277, offset: 0xE277, size: 0x8, addend: 0x0, symName: __ZNKSt3__117__compressed_pairINS_12basic_stringIcNS_11char_traitsIcEENS_9allocatorIcEEE5__repES5_E6secondB7v160006Ev, symObjAddr: 0x438C, symBinAddr: 0x10000854C, symSize: 0x24 }
  - { offsetInCU: 0xE29C, offset: 0xE29C, size: 0x8, addend: 0x0, symName: __ZNKSt3__122__compressed_pair_elemINS_9allocatorIcEELi1ELb1EE5__getB7v160006Ev, symObjAddr: 0x43B0, symBinAddr: 0x100008570, symSize: 0x14 }
  - { offsetInCU: 0xE2C1, offset: 0xE2C1, size: 0x8, addend: 0x0, symName: __ZNSt3__123__libcpp_numeric_limitsImLb1EE3maxB7v160006Ev, symObjAddr: 0x43C4, symBinAddr: 0x100008584, symSize: 0x8 }
  - { offsetInCU: 0xE2D5, offset: 0xE2D5, size: 0x8, addend: 0x0, symName: __ZNSt3__123__libcpp_numeric_limitsIlLb1EE3maxB7v160006Ev, symObjAddr: 0x43CC, symBinAddr: 0x10000858C, symSize: 0x8 }
  - { offsetInCU: 0xE2E9, offset: 0xE2E9, size: 0x8, addend: 0x0, symName: __ZNSt3__111char_traitsIcE11to_int_typeEc, symObjAddr: 0x43D4, symBinAddr: 0x100008594, symSize: 0x14 }
  - { offsetInCU: 0xE30B, offset: 0xE30B, size: 0x8, addend: 0x0, symName: __Z7isasciii, symObjAddr: 0x43E8, symBinAddr: 0x1000085A8, symSize: 0x24 }
  - { offsetInCU: 0xE338, offset: 0xE338, size: 0x8, addend: 0x0, symName: __ZNKSt3__18ios_base10exceptionsB7v160006Ev, symObjAddr: 0x440C, symBinAddr: 0x1000085CC, symSize: 0x18 }
  - { offsetInCU: 0xE35F, offset: 0xE35F, size: 0x8, addend: 0x0, symName: __ZNSt3__111char_traitsIcE2eqEcc, symObjAddr: 0x4658, symBinAddr: 0x100008818, symSize: 0x28 }
  - { offsetInCU: 0xE390, offset: 0xE390, size: 0x8, addend: 0x0, symName: __ZNKSt3__112basic_stringIcNS_11char_traitsIcEENS_9allocatorIcEEE4sizeB7v160006Ev, symObjAddr: 0x4680, symBinAddr: 0x100008840, symSize: 0x54 }
  - { offsetInCU: 0xE3B5, offset: 0xE3B5, size: 0x8, addend: 0x0, symName: __ZNKSt3__112basic_stringIcNS_11char_traitsIcEENS_9allocatorIcEEE15__get_long_sizeB7v160006Ev, symObjAddr: 0x46D4, symBinAddr: 0x100008894, symSize: 0x28 }
  - { offsetInCU: 0xE3DA, offset: 0xE3DA, size: 0x8, addend: 0x0, symName: __ZNKSt3__112basic_stringIcNS_11char_traitsIcEENS_9allocatorIcEEE16__get_short_sizeB7v160006Ev, symObjAddr: 0x46FC, symBinAddr: 0x1000088BC, symSize: 0x34 }
  - { offsetInCU: 0xE3FF, offset: 0xE3FF, size: 0x8, addend: 0x0, symName: __ZNSt3__16vectorI4BookNS_9allocatorIS1_EEE9__end_capB7v160006Ev, symObjAddr: 0x4730, symBinAddr: 0x1000088F0, symSize: 0x28 }
  - { offsetInCU: 0xE424, offset: 0xE424, size: 0x8, addend: 0x0, symName: __ZNSt3__16vectorI4BookNS_9allocatorIS1_EEE22__construct_one_at_endB7v160006IJRKS1_EEEvDpOT_, symObjAddr: 0x4758, symBinAddr: 0x100008918, symSize: 0x98 }
  - { offsetInCU: 0xE472, offset: 0xE472, size: 0x8, addend: 0x0, symName: __ZNSt3__16vectorI4BookNS_9allocatorIS1_EEE21__push_back_slow_pathIRKS1_EEvOT_, symObjAddr: 0x47F0, symBinAddr: 0x1000089B0, symSize: 0xE0 }
  - { offsetInCU: 0xE4CE, offset: 0xE4CE, size: 0x8, addend: 0x0, symName: __ZNSt3__117__compressed_pairIP4BookNS_9allocatorIS1_EEE5firstB7v160006Ev, symObjAddr: 0x48D0, symBinAddr: 0x100008A90, symSize: 0x24 }
  - { offsetInCU: 0xE4F3, offset: 0xE4F3, size: 0x8, addend: 0x0, symName: __ZNSt3__122__compressed_pair_elemIP4BookLi0ELb0EE5__getB7v160006Ev, symObjAddr: 0x48F4, symBinAddr: 0x100008AB4, symSize: 0x14 }
  - { offsetInCU: 0xE531, offset: 0xE531, size: 0x8, addend: 0x0, symName: __ZNSt3__16vectorI4BookNS_9allocatorIS1_EEE21_ConstructTransactionC1B7v160006ERS4_m, symObjAddr: 0x4908, symBinAddr: 0x100008AC8, symSize: 0x3C }
  - { offsetInCU: 0xE578, offset: 0xE578, size: 0x8, addend: 0x0, symName: __ZNSt3__116allocator_traitsINS_9allocatorI4BookEEE9constructB7v160006IS2_JRKS2_EvEEvRS3_PT_DpOT0_, symObjAddr: 0x4944, symBinAddr: 0x100008B04, symSize: 0x34 }
  - { offsetInCU: 0xE5CF, offset: 0xE5CF, size: 0x8, addend: 0x0, symName: __ZNSt3__16vectorI4BookNS_9allocatorIS1_EEE21_ConstructTransactionD1B7v160006Ev, symObjAddr: 0x4978, symBinAddr: 0x100008B38, symSize: 0x2C }
  - { offsetInCU: 0xE5F8, offset: 0xE5F8, size: 0x8, addend: 0x0, symName: __ZNSt3__16vectorI4BookNS_9allocatorIS1_EEE21_ConstructTransactionC2B7v160006ERS4_m, symObjAddr: 0x49A4, symBinAddr: 0x100008B64, symSize: 0x44 }
  - { offsetInCU: 0xE63F, offset: 0xE63F, size: 0x8, addend: 0x0, symName: __ZNSt3__19allocatorI4BookE9constructB7v160006IS1_JRKS1_EEEvPT_DpOT0_, symObjAddr: 0x49E8, symBinAddr: 0x100008BA8, symSize: 0x30 }
  - { offsetInCU: 0xE694, offset: 0xE694, size: 0x8, addend: 0x0, symName: __ZN4BookC1ERKS_, symObjAddr: 0x4A18, symBinAddr: 0x100008BD8, symSize: 0x34 }
  - { offsetInCU: 0xE6C8, offset: 0xE6C8, size: 0x8, addend: 0x0, symName: __ZN4BookC2ERKS_, symObjAddr: 0x4A4C, symBinAddr: 0x100008C0C, symSize: 0xA0 }
  - { offsetInCU: 0xE6FC, offset: 0xE6FC, size: 0x8, addend: 0x0, symName: __ZNSt3__16vectorI4BookNS_9allocatorIS1_EEE21_ConstructTransactionD2B7v160006Ev, symObjAddr: 0x4AEC, symBinAddr: 0x100008CAC, symSize: 0x20 }
  - { offsetInCU: 0xE725, offset: 0xE725, size: 0x8, addend: 0x0, symName: __ZNKSt3__16vectorI4BookNS_9allocatorIS1_EEE11__recommendB7v160006Em, symObjAddr: 0x4B0C, symBinAddr: 0x100008CCC, symSize: 0xB4 }
  - { offsetInCU: 0xE778, offset: 0xE778, size: 0x8, addend: 0x0, symName: __ZNSt3__114__split_bufferI4BookRNS_9allocatorIS1_EEEC1EmmS4_, symObjAddr: 0x4BC0, symBinAddr: 0x100008D80, symSize: 0x44 }
  - { offsetInCU: 0xE7CD, offset: 0xE7CD, size: 0x8, addend: 0x0, symName: __ZNSt3__114__split_bufferI4BookRNS_9allocatorIS1_EEED1Ev, symObjAddr: 0x4D1C, symBinAddr: 0x100008EDC, symSize: 0x2C }
  - { offsetInCU: 0xE7F8, offset: 0xE7F8, size: 0x8, addend: 0x0, symName: __ZNKSt3__16vectorI4BookNS_9allocatorIS1_EEE8max_sizeEv, symObjAddr: 0x4D48, symBinAddr: 0x100008F08, symSize: 0x74 }
  - { offsetInCU: 0xE81E, offset: 0xE81E, size: 0x8, addend: 0x0, symName: __ZNKSt3__16vectorI4BookNS_9allocatorIS1_EEE20__throw_length_errorB7v160006Ev, symObjAddr: 0x4DBC, symBinAddr: 0x100008F7C, symSize: 0x1C }
  - { offsetInCU: 0xE84D, offset: 0xE84D, size: 0x8, addend: 0x0, symName: __ZNSt3__116allocator_traitsINS_9allocatorI4BookEEE8max_sizeB7v160006IS3_vEEmRKS3_, symObjAddr: 0x4E30, symBinAddr: 0x100008FF0, symSize: 0x24 }
  - { offsetInCU: 0xE87B, offset: 0xE87B, size: 0x8, addend: 0x0, symName: __ZNKSt3__16vectorI4BookNS_9allocatorIS1_EEE7__allocB7v160006Ev, symObjAddr: 0x4E54, symBinAddr: 0x100009014, symSize: 0x28 }
  - { offsetInCU: 0xE8B4, offset: 0xE8B4, size: 0x8, addend: 0x0, symName: __ZNKSt3__16__lessImmEclB7v160006ERKmS3_, symObjAddr: 0x4ED0, symBinAddr: 0x100009090, symSize: 0x34 }
  - { offsetInCU: 0xE8F5, offset: 0xE8F5, size: 0x8, addend: 0x0, symName: __ZNKSt3__19allocatorI4BookE8max_sizeB7v160006Ev, symObjAddr: 0x4F04, symBinAddr: 0x1000090C4, symSize: 0x14 }
  - { offsetInCU: 0xE91A, offset: 0xE91A, size: 0x8, addend: 0x0, symName: __ZNKSt3__117__compressed_pairIP4BookNS_9allocatorIS1_EEE6secondB7v160006Ev, symObjAddr: 0x4F18, symBinAddr: 0x1000090D8, symSize: 0x24 }
  - { offsetInCU: 0xE93F, offset: 0xE93F, size: 0x8, addend: 0x0, symName: __ZNKSt3__122__compressed_pair_elemINS_9allocatorI4BookEELi1ELb1EE5__getB7v160006Ev, symObjAddr: 0x4F3C, symBinAddr: 0x1000090FC, symSize: 0x14 }
  - { offsetInCU: 0xE964, offset: 0xE964, size: 0x8, addend: 0x0, symName: __ZNSt12length_errorC1B7v160006EPKc, symObjAddr: 0x4FB4, symBinAddr: 0x100009174, symSize: 0x34 }
  - { offsetInCU: 0xE99B, offset: 0xE99B, size: 0x8, addend: 0x0, symName: __ZNSt12length_errorC2B7v160006EPKc, symObjAddr: 0x4FE8, symBinAddr: 0x1000091A8, symSize: 0x4C }
  - { offsetInCU: 0xE9D2, offset: 0xE9D2, size: 0x8, addend: 0x0, symName: __ZNSt3__114__split_bufferI4BookRNS_9allocatorIS1_EEEC2EmmS4_, symObjAddr: 0x5088, symBinAddr: 0x100009248, symSize: 0xD4 }
  - { offsetInCU: 0xEA45, offset: 0xEA45, size: 0x8, addend: 0x0, symName: __ZNSt3__117__compressed_pairIP4BookRNS_9allocatorIS1_EEEC1B7v160006IDnS5_EEOT_OT0_, symObjAddr: 0x515C, symBinAddr: 0x10000931C, symSize: 0x3C }
  - { offsetInCU: 0xEA9C, offset: 0xEA9C, size: 0x8, addend: 0x0, symName: __ZNSt3__114__split_bufferI4BookRNS_9allocatorIS1_EEE7__allocB7v160006Ev, symObjAddr: 0x51D8, symBinAddr: 0x100009398, symSize: 0x28 }
  - { offsetInCU: 0xEAC1, offset: 0xEAC1, size: 0x8, addend: 0x0, symName: __ZNSt3__114__split_bufferI4BookRNS_9allocatorIS1_EEE9__end_capB7v160006Ev, symObjAddr: 0x5200, symBinAddr: 0x1000093C0, symSize: 0x28 }
  - { offsetInCU: 0xEAE6, offset: 0xEAE6, size: 0x8, addend: 0x0, symName: __ZNSt3__117__compressed_pairIP4BookRNS_9allocatorIS1_EEEC2B7v160006IDnS5_EEOT_OT0_, symObjAddr: 0x5228, symBinAddr: 0x1000093E8, symSize: 0x48 }
  - { offsetInCU: 0xEB3D, offset: 0xEB3D, size: 0x8, addend: 0x0, symName: __ZNSt3__122__compressed_pair_elemIRNS_9allocatorI4BookEELi1ELb0EEC2B7v160006IS4_vEEOT_, symObjAddr: 0x5270, symBinAddr: 0x100009430, symSize: 0x20 }
  - { offsetInCU: 0xEB7E, offset: 0xEB7E, size: 0x8, addend: 0x0, symName: __ZNSt3__19allocatorI4BookE8allocateB7v160006Em, symObjAddr: 0x5290, symBinAddr: 0x100009450, symSize: 0x84 }
  - { offsetInCU: 0xEBB1, offset: 0xEBB1, size: 0x8, addend: 0x0, symName: __ZNSt3__117__compressed_pairIP4BookRNS_9allocatorIS1_EEE6secondB7v160006Ev, symObjAddr: 0x5314, symBinAddr: 0x1000094D4, symSize: 0x28 }
  - { offsetInCU: 0xEBD6, offset: 0xEBD6, size: 0x8, addend: 0x0, symName: __ZNSt3__122__compressed_pair_elemIRNS_9allocatorI4BookEELi1ELb0EE5__getB7v160006Ev, symObjAddr: 0x533C, symBinAddr: 0x1000094FC, symSize: 0x18 }
  - { offsetInCU: 0xEBFB, offset: 0xEBFB, size: 0x8, addend: 0x0, symName: __ZNSt3__117__compressed_pairIP4BookRNS_9allocatorIS1_EEE5firstB7v160006Ev, symObjAddr: 0x5354, symBinAddr: 0x100009514, symSize: 0x24 }
  - { offsetInCU: 0xEC20, offset: 0xEC20, size: 0x8, addend: 0x0, symName: __ZNSt3__116reverse_iteratorIP4BookEC1B7v160006ES2_, symObjAddr: 0x54AC, symBinAddr: 0x10000966C, symSize: 0x34 }
  - { offsetInCU: 0xEC57, offset: 0xEC57, size: 0x8, addend: 0x0, symName: __ZNKSt3__116reverse_iteratorIP4BookE4baseB7v160006Ev, symObjAddr: 0x54E0, symBinAddr: 0x1000096A0, symSize: 0x18 }
  - { offsetInCU: 0xEC7C, offset: 0xEC7C, size: 0x8, addend: 0x0, symName: __ZNKSt3__16vectorI4BookNS_9allocatorIS1_EEE14__annotate_newB7v160006Em, symObjAddr: 0x5534, symBinAddr: 0x1000096F4, symSize: 0xAC }
  - { offsetInCU: 0xECB0, offset: 0xECB0, size: 0x8, addend: 0x0, symName: __ZNSt3__129_AllocatorDestroyRangeReverseINS_9allocatorI4BookEENS_16reverse_iteratorIPS2_EEEC1B7v160006ERS3_RS6_S9_, symObjAddr: 0x563C, symBinAddr: 0x1000097FC, symSize: 0x44 }
  - { offsetInCU: 0xED06, offset: 0xED06, size: 0x8, addend: 0x0, symName: __ZNKSt3__116reverse_iteratorIP4BookEdeB7v160006Ev, symObjAddr: 0x56EC, symBinAddr: 0x1000098AC, symSize: 0x28 }
  - { offsetInCU: 0xED39, offset: 0xED39, size: 0x8, addend: 0x0, symName: __ZNSt3__116reverse_iteratorIP4BookEppB7v160006Ev, symObjAddr: 0x5714, symBinAddr: 0x1000098D4, symSize: 0x20 }
  - { offsetInCU: 0xED5E, offset: 0xED5E, size: 0x8, addend: 0x0, symName: __ZNSt3__128__exception_guard_exceptionsINS_29_AllocatorDestroyRangeReverseINS_9allocatorI4BookEENS_16reverse_iteratorIPS3_EEEEE10__completeB7v160006Ev, symObjAddr: 0x5734, symBinAddr: 0x1000098F4, symSize: 0x1C }
  - { offsetInCU: 0xED83, offset: 0xED83, size: 0x8, addend: 0x0, symName: __ZNSt3__128__exception_guard_exceptionsINS_29_AllocatorDestroyRangeReverseINS_9allocatorI4BookEENS_16reverse_iteratorIPS3_EEEEED1B7v160006Ev, symObjAddr: 0x5750, symBinAddr: 0x100009910, symSize: 0x2C }
  - { offsetInCU: 0xEDAC, offset: 0xEDAC, size: 0x8, addend: 0x0, symName: __ZNSt3__128__exception_guard_exceptionsINS_29_AllocatorDestroyRangeReverseINS_9allocatorI4BookEENS_16reverse_iteratorIPS3_EEEEEC1B7v160006ES8_, symObjAddr: 0x577C, symBinAddr: 0x10000993C, symSize: 0x34 }
  - { offsetInCU: 0xEDE4, offset: 0xEDE4, size: 0x8, addend: 0x0, symName: __ZNSt3__128__exception_guard_exceptionsINS_29_AllocatorDestroyRangeReverseINS_9allocatorI4BookEENS_16reverse_iteratorIPS3_EEEEEC2B7v160006ES8_, symObjAddr: 0x57B0, symBinAddr: 0x100009970, symSize: 0x30 }
  - { offsetInCU: 0xEE1C, offset: 0xEE1C, size: 0x8, addend: 0x0, symName: __ZNSt3__129_AllocatorDestroyRangeReverseINS_9allocatorI4BookEENS_16reverse_iteratorIPS2_EEEC2B7v160006ERS3_RS6_S9_, symObjAddr: 0x57E0, symBinAddr: 0x1000099A0, symSize: 0x38 }
  - { offsetInCU: 0xEE77, offset: 0xEE77, size: 0x8, addend: 0x0, symName: __ZNSt3__119__to_address_helperINS_16reverse_iteratorIP4BookEEvE6__callB7v160006ERKS4_, symObjAddr: 0x5818, symBinAddr: 0x1000099D8, symSize: 0x4C }
  - { offsetInCU: 0xEE9A, offset: 0xEE9A, size: 0x8, addend: 0x0, symName: __ZNKSt3__116reverse_iteratorIP4BookEptB7v160006Ev, symObjAddr: 0x5864, symBinAddr: 0x100009A24, symSize: 0x24 }
  - { offsetInCU: 0xEEBF, offset: 0xEEBF, size: 0x8, addend: 0x0, symName: __ZNSt3__128__exception_guard_exceptionsINS_29_AllocatorDestroyRangeReverseINS_9allocatorI4BookEENS_16reverse_iteratorIPS3_EEEEED2B7v160006Ev, symObjAddr: 0x5888, symBinAddr: 0x100009A48, symSize: 0x48 }
  - { offsetInCU: 0xEEE8, offset: 0xEEE8, size: 0x8, addend: 0x0, symName: __ZNKSt3__129_AllocatorDestroyRangeReverseINS_9allocatorI4BookEENS_16reverse_iteratorIPS2_EEEclB7v160006Ev, symObjAddr: 0x58D0, symBinAddr: 0x100009A90, symSize: 0xB4 }
  - { offsetInCU: 0xEF0E, offset: 0xEF0E, size: 0x8, addend: 0x0, symName: __ZNSt3__116reverse_iteratorINS0_IP4BookEEEC1B7v160006ES3_, symObjAddr: 0x59F4, symBinAddr: 0x100009BB4, symSize: 0x3C }
  - { offsetInCU: 0xEF45, offset: 0xEF45, size: 0x8, addend: 0x0, symName: __ZNSt3__116reverse_iteratorINS0_IP4BookEEEppB7v160006Ev, symObjAddr: 0x5AB4, symBinAddr: 0x100009C74, symSize: 0x30 }
  - { offsetInCU: 0xEF6A, offset: 0xEF6A, size: 0x8, addend: 0x0, symName: __ZNKSt3__116reverse_iteratorINS0_IP4BookEEE4baseB7v160006Ev, symObjAddr: 0x5AE4, symBinAddr: 0x100009CA4, symSize: 0x24 }
  - { offsetInCU: 0xEF94, offset: 0xEF94, size: 0x8, addend: 0x0, symName: __ZNSt3__119__to_address_helperINS_16reverse_iteratorINS1_IP4BookEEEEvE6__callB7v160006ERKS5_, symObjAddr: 0x5B08, symBinAddr: 0x100009CC8, symSize: 0x4C }
  - { offsetInCU: 0xEFB7, offset: 0xEFB7, size: 0x8, addend: 0x0, symName: __ZNKSt3__116reverse_iteratorINS0_IP4BookEEEptB7v160006Ev, symObjAddr: 0x5B54, symBinAddr: 0x100009D14, symSize: 0x24 }
  - { offsetInCU: 0xEFDC, offset: 0xEFDC, size: 0x8, addend: 0x0, symName: __ZNKSt3__116reverse_iteratorINS0_IP4BookEEEdeB7v160006Ev, symObjAddr: 0x5B78, symBinAddr: 0x100009D38, symSize: 0x34 }
  - { offsetInCU: 0xF00F, offset: 0xF00F, size: 0x8, addend: 0x0, symName: __ZNSt3__116reverse_iteratorIP4BookEmmB7v160006Ev, symObjAddr: 0x5BAC, symBinAddr: 0x100009D6C, symSize: 0x20 }
  - { offsetInCU: 0xF034, offset: 0xF034, size: 0x8, addend: 0x0, symName: __ZNSt3__116reverse_iteratorINS0_IP4BookEEEC2B7v160006ES3_, symObjAddr: 0x5BCC, symBinAddr: 0x100009D8C, symSize: 0x2C }
  - { offsetInCU: 0xF06B, offset: 0xF06B, size: 0x8, addend: 0x0, symName: __ZNSt3__116reverse_iteratorIP4BookEC2B7v160006ES2_, symObjAddr: 0x5BF8, symBinAddr: 0x100009DB8, symSize: 0x28 }
  - { offsetInCU: 0xF0A2, offset: 0xF0A2, size: 0x8, addend: 0x0, symName: __ZNSt3__114__split_bufferI4BookRNS_9allocatorIS1_EEED2Ev, symObjAddr: 0x5C20, symBinAddr: 0x100009DE0, symSize: 0x80 }
  - { offsetInCU: 0xF0CD, offset: 0xF0CD, size: 0x8, addend: 0x0, symName: __ZNSt3__114__split_bufferI4BookRNS_9allocatorIS1_EEE5clearB7v160006Ev, symObjAddr: 0x5CA0, symBinAddr: 0x100009E60, symSize: 0x28 }
  - { offsetInCU: 0xF0F2, offset: 0xF0F2, size: 0x8, addend: 0x0, symName: __ZNKSt3__114__split_bufferI4BookRNS_9allocatorIS1_EEE8capacityB7v160006Ev, symObjAddr: 0x5CC8, symBinAddr: 0x100009E88, symSize: 0x40 }
  - { offsetInCU: 0xF117, offset: 0xF117, size: 0x8, addend: 0x0, symName: __ZNSt3__114__split_bufferI4BookRNS_9allocatorIS1_EEE17__destruct_at_endB7v160006EPS1_, symObjAddr: 0x5D08, symBinAddr: 0x100009EC8, symSize: 0x2C }
  - { offsetInCU: 0xF14A, offset: 0xF14A, size: 0x8, addend: 0x0, symName: __ZNSt3__114__split_bufferI4BookRNS_9allocatorIS1_EEE17__destruct_at_endB7v160006EPS1_NS_17integral_constantIbLb0EEE, symObjAddr: 0x5D34, symBinAddr: 0x100009EF4, symSize: 0x94 }
  - { offsetInCU: 0xF189, offset: 0xF189, size: 0x8, addend: 0x0, symName: __ZNKSt3__114__split_bufferI4BookRNS_9allocatorIS1_EEE9__end_capB7v160006Ev, symObjAddr: 0x5DC8, symBinAddr: 0x100009F88, symSize: 0x28 }
  - { offsetInCU: 0xF1AE, offset: 0xF1AE, size: 0x8, addend: 0x0, symName: __ZNKSt3__117__compressed_pairIP4BookRNS_9allocatorIS1_EEE5firstB7v160006Ev, symObjAddr: 0x5DF0, symBinAddr: 0x100009FB0, symSize: 0x24 }
  - { offsetInCU: 0xF1D3, offset: 0xF1D3, size: 0x8, addend: 0x0, symName: __ZNSt3__19basic_iosIcNS_11char_traitsIcEEEC2B7v160006Ev, symObjAddr: 0x5E14, symBinAddr: 0x100009FD4, symSize: 0x44 }
  - { offsetInCU: 0xF1FC, offset: 0xF1FC, size: 0x8, addend: 0x0, symName: __ZNSt3__113basic_ostreamIcNS_11char_traitsIcEEEC2B7v160006EPNS_15basic_streambufIcS2_EE, symObjAddr: 0x5E58, symBinAddr: 0x10000A018, symSize: 0x60 }
  - { offsetInCU: 0xF23F, offset: 0xF23F, size: 0x8, addend: 0x0, symName: __ZNSt3__113basic_filebufIcNS_11char_traitsIcEEE4openERKNS_12basic_stringIcS2_NS_9allocatorIcEEEEj, symObjAddr: 0x5EB8, symBinAddr: 0x10000A078, symSize: 0x44 }
  - { offsetInCU: 0xF281, offset: 0xF281, size: 0x8, addend: 0x0, symName: __ZNSt3__18ios_baseC2B7v160006Ev, symObjAddr: 0x5EFC, symBinAddr: 0x10000A0BC, symSize: 0x24 }
  - { offsetInCU: 0xF2AA, offset: 0xF2AA, size: 0x8, addend: 0x0, symName: __ZNSt3__19basic_iosIcNS_11char_traitsIcEEE4initB7v160006EPNS_15basic_streambufIcS2_EE, symObjAddr: 0x5F20, symBinAddr: 0x10000A0E0, symSize: 0x44 }
  - { offsetInCU: 0xF2DF, offset: 0xF2DF, size: 0x8, addend: 0x0, symName: __ZNKSt3__112basic_stringIcNS_11char_traitsIcEENS_9allocatorIcEEE5c_strB7v160006Ev, symObjAddr: 0x5F64, symBinAddr: 0x10000A124, symSize: 0x24 }
  - { offsetInCU: 0xF304, offset: 0xF304, size: 0x8, addend: 0x0, symName: __ZNKSt3__113basic_filebufIcNS_11char_traitsIcEEE7is_openEv, symObjAddr: 0x5F88, symBinAddr: 0x10000A148, symSize: 0x24 }
  - { offsetInCU: 0xF32B, offset: 0xF32B, size: 0x8, addend: 0x0, symName: __ZNSt3__16vectorI4BookNS_9allocatorIS1_EEE11__make_iterB7v160006EPS1_, symObjAddr: 0x5FAC, symBinAddr: 0x10000A16C, symSize: 0x34 }
  - { offsetInCU: 0xF35F, offset: 0xF35F, size: 0x8, addend: 0x0, symName: __ZNSt3__111__wrap_iterIP4BookEC1B7v160006EPKvS2_, symObjAddr: 0x5FE0, symBinAddr: 0x10000A1A0, symSize: 0x3C }
  - { offsetInCU: 0xF3A4, offset: 0xF3A4, size: 0x8, addend: 0x0, symName: __ZNSt3__111__wrap_iterIP4BookEC2B7v160006EPKvS2_, symObjAddr: 0x601C, symBinAddr: 0x10000A1DC, symSize: 0x24 }
  - { offsetInCU: 0xF3E9, offset: 0xF3E9, size: 0x8, addend: 0x0, symName: __ZNKSt3__111__wrap_iterIP4BookE4baseB7v160006Ev, symObjAddr: 0x6088, symBinAddr: 0x10000A248, symSize: 0x18 }
  - { offsetInCU: 0xF40E, offset: 0xF40E, size: 0x8, addend: 0x0, symName: __ZNKSt3__16vectorI4BookNS_9allocatorIS1_EEE6cbeginB7v160006Ev, symObjAddr: 0x60E8, symBinAddr: 0x10000A2A8, symSize: 0x2C }
  - { offsetInCU: 0xF433, offset: 0xF433, size: 0x8, addend: 0x0, symName: __ZNSt3__16vectorI4BookNS_9allocatorIS1_EEE17__destruct_at_endB7v160006EPS1_, symObjAddr: 0x6114, symBinAddr: 0x10000A2D4, symSize: 0x88 }
  - { offsetInCU: 0xF476, offset: 0xF476, size: 0x8, addend: 0x0, symName: __ZNSt3__16vectorI4BookNS_9allocatorIS1_EEE27__invalidate_iterators_pastB7v160006EPS1_, symObjAddr: 0x61DC, symBinAddr: 0x10000A39C, symSize: 0x14 }
  - { offsetInCU: 0xF4AC, offset: 0xF4AC, size: 0x8, addend: 0x0, symName: __ZNKSt3__111__wrap_iterIPK4BookE4baseB7v160006Ev, symObjAddr: 0x61F0, symBinAddr: 0x10000A3B0, symSize: 0x18 }
  - { offsetInCU: 0xF4D1, offset: 0xF4D1, size: 0x8, addend: 0x0, symName: __ZNKSt3__16vectorI4BookNS_9allocatorIS1_EEE17__annotate_shrinkB7v160006Em, symObjAddr: 0x6208, symBinAddr: 0x10000A3C8, symSize: 0xB4 }
  - { offsetInCU: 0xF528, offset: 0xF528, size: 0x8, addend: 0x0, symName: __ZNKSt3__111__move_loopINS_17_ClassicAlgPolicyEEclB7v160006IP4BookS5_S5_EENS_4pairIT_T1_EES7_T0_S8_, symObjAddr: 0x6538, symBinAddr: 0x10000A6F8, symSize: 0x90 }
  - { offsetInCU: 0xF597, offset: 0xF597, size: 0x8, addend: 0x0, symName: __ZNSt3__18_IterOpsINS_17_ClassicAlgPolicyEE11__iter_moveB7v160006IRP4BookEENS_9enable_ifIXsr12is_referenceIDTdeclsr3stdE7declvalIRT_EEEEE5valueEDTclsr3stdE4movedeclsr3stdE7declvalIS9_EEEEE4typeEOS8_, symObjAddr: 0x66A0, symBinAddr: 0x10000A860, symSize: 0x28 }
  - { offsetInCU: 0xF5C3, offset: 0xF5C3, size: 0x8, addend: 0x0, symName: __ZN4BookaSERKS_, symObjAddr: 0x66C8, symBinAddr: 0x10000A888, symSize: 0x6C }
  - { offsetInCU: 0xF5F3, offset: 0xF5F3, size: 0x8, addend: 0x0, symName: __ZNSt3__18_IterOpsINS_17_ClassicAlgPolicyEE25__validate_iter_referenceB7v160006IRP4BookEEvv, symObjAddr: 0x6734, symBinAddr: 0x10000A8F4, symSize: 0x4 }
  - { offsetInCU: 0xF611, offset: 0xF611, size: 0x8, addend: 0x0, symName: __ZNSt3__118__unwrap_iter_implIP4BookLb1EE8__unwrapB7v160006ES2_, symObjAddr: 0x6738, symBinAddr: 0x10000A8F8, symSize: 0x24 }
  - { offsetInCU: 0xF634, offset: 0xF634, size: 0x8, addend: 0x0, symName: __ZNSt3__14pairIP4BookS2_EC1B7v160006ERKS2_S5_, symObjAddr: 0x675C, symBinAddr: 0x10000A91C, symSize: 0x3C }
  - { offsetInCU: 0xF679, offset: 0xF679, size: 0x8, addend: 0x0, symName: __ZNSt3__14pairIP4BookS2_EC2B7v160006ERKS2_S5_, symObjAddr: 0x6798, symBinAddr: 0x10000A958, symSize: 0x34 }
  - { offsetInCU: 0xF6BE, offset: 0xF6BE, size: 0x8, addend: 0x0, symName: __ZNSt3__118__unwrap_iter_implIP4BookLb1EE8__rewrapB7v160006ES2_S2_, symObjAddr: 0x67CC, symBinAddr: 0x10000A98C, symSize: 0x50 }
  - { offsetInCU: 0xF6EF, offset: 0xF6EF, size: 0x8, addend: 0x0, symName: __ZNSt3__111__wrap_iterIPK4BookEC2B7v160006IPS1_EERKNS0_IT_EEPNS_9enable_ifIXsr14is_convertibleIS7_S3_EE5valueEvE4typeE, symObjAddr: 0x681C, symBinAddr: 0x10000A9DC, symSize: 0x40 }
  - { offsetInCU: 0xF73A, offset: 0xF73A, size: 0x8, addend: 0x0, symName: __ZNKSt3__16vectorI4BookNS_9allocatorIS1_EEE11__make_iterB7v160006EPKS1_, symObjAddr: 0x685C, symBinAddr: 0x10000AA1C, symSize: 0x34 }
  - { offsetInCU: 0xF76E, offset: 0xF76E, size: 0x8, addend: 0x0, symName: __ZNSt3__111__wrap_iterIPK4BookEC1B7v160006EPKvS3_, symObjAddr: 0x6890, symBinAddr: 0x10000AA50, symSize: 0x3C }
  - { offsetInCU: 0xF7B3, offset: 0xF7B3, size: 0x8, addend: 0x0, symName: __ZNSt3__111__wrap_iterIPK4BookEC2B7v160006EPKvS3_, symObjAddr: 0x68CC, symBinAddr: 0x10000AA8C, symSize: 0x24 }
  - { offsetInCU: 0xF7F8, offset: 0xF7F8, size: 0x8, addend: 0x0, symName: __ZNSt3__113basic_istreamIcNS_11char_traitsIcEEEC2B7v160006EPNS_15basic_streambufIcS2_EE, symObjAddr: 0x6938, symBinAddr: 0x10000AAF8, symSize: 0x64 }
  - { offsetInCU: 0xF83B, offset: 0xF83B, size: 0x8, addend: 0x0, symName: __ZNKSt3__19basic_iosIcNS_11char_traitsIcEEE4failB7v160006Ev, symObjAddr: 0x699C, symBinAddr: 0x10000AB5C, symSize: 0x28 }
  - { offsetInCU: 0xF860, offset: 0xF860, size: 0x8, addend: 0x0, symName: __ZNKSt3__18ios_base4failB7v160006Ev, symObjAddr: 0x69C4, symBinAddr: 0x10000AB84, symSize: 0x28 }
  - { offsetInCU: 0xF887, offset: 0xF887, size: 0x8, addend: 0x0, symName: __ZNSt3__111char_traitsIcE4findEPKcmRS2_, symObjAddr: 0x6C24, symBinAddr: 0x10000ADE4, symSize: 0x84 }
  - { offsetInCU: 0xF8C6, offset: 0xF8C6, size: 0x8, addend: 0x0, symName: __ZNSt3__111char_traitsIcE7compareEPKcS3_m, symObjAddr: 0x6CA8, symBinAddr: 0x10000AE68, symSize: 0x80 }
  - { offsetInCU: 0xF905, offset: 0xF905, size: 0x8, addend: 0x0, symName: __ZNSt3__19allocatorIcEC1B7v160006Ev, symObjAddr: 0x6D90, symBinAddr: 0x10000AF50, symSize: 0x2C }
...
